
PWMLEDTestBoard.elf:     file format elf32-littlearm

Sections:
Idx Name          Size      VMA       LMA       File off  Algn
  0 .isr_vector   000000c0  08000000  08000000  00001000  2**0
                  CONTENTS, ALLOC, LOAD, READONLY, DATA
  1 .text         00003da0  080000c0  080000c0  000010c0  2**4
                  CONTENTS, ALLOC, LOAD, READONLY, CODE
  2 .rodata       00000198  08003e60  08003e60  00004e60  2**2
                  CONTENTS, ALLOC, LOAD, READONLY, DATA
  3 .ARM.extab    00000000  08003ff8  08003ff8  00006010  2**0
                  CONTENTS, READONLY
  4 .ARM          00000008  08003ff8  08003ff8  00004ff8  2**2
                  CONTENTS, ALLOC, LOAD, READONLY, DATA
  5 .preinit_array 00000000  08004000  08004000  00006010  2**0
                  CONTENTS, ALLOC, LOAD, DATA
  6 .init_array   00000004  08004000  08004000  00005000  2**2
                  CONTENTS, ALLOC, LOAD, READONLY, DATA
  7 .fini_array   00000004  08004004  08004004  00005004  2**2
                  CONTENTS, ALLOC, LOAD, READONLY, DATA
  8 .data         00000010  20000000  08004008  00006000  2**2
                  CONTENTS, ALLOC, LOAD, DATA
  9 .bss          00001d28  20000010  08004018  00006010  2**2
                  ALLOC
 10 ._user_heap_stack 000001b8  20001d38  08004018  00006d38  2**0
                  ALLOC
 11 .ARM.attributes 00000028  00000000  00000000  00006010  2**0
                  CONTENTS, READONLY
 12 .comment      00000043  00000000  00000000  00006038  2**0
                  CONTENTS, READONLY
 13 .debug_frame  000000d0  00000000  00000000  0000607c  2**2
                  CONTENTS, READONLY, DEBUGGING, OCTETS

Disassembly of section .text:

080000c0 <__do_global_dtors_aux>:
 80000c0:	b510      	push	{r4, lr}
 80000c2:	4c06      	ldr	r4, [pc, #24]	@ (80000dc <__do_global_dtors_aux+0x1c>)
 80000c4:	7823      	ldrb	r3, [r4, #0]
 80000c6:	2b00      	cmp	r3, #0
 80000c8:	d107      	bne.n	80000da <__do_global_dtors_aux+0x1a>
 80000ca:	4b05      	ldr	r3, [pc, #20]	@ (80000e0 <__do_global_dtors_aux+0x20>)
 80000cc:	2b00      	cmp	r3, #0
 80000ce:	d002      	beq.n	80000d6 <__do_global_dtors_aux+0x16>
 80000d0:	4804      	ldr	r0, [pc, #16]	@ (80000e4 <__do_global_dtors_aux+0x24>)
 80000d2:	e000      	b.n	80000d6 <__do_global_dtors_aux+0x16>
 80000d4:	bf00      	nop
 80000d6:	2301      	movs	r3, #1
 80000d8:	7023      	strb	r3, [r4, #0]
 80000da:	bd10      	pop	{r4, pc}
 80000dc:	20000010 	.word	0x20000010
 80000e0:	00000000 	.word	0x00000000
 80000e4:	08003e48 	.word	0x08003e48

080000e8 <frame_dummy>:
 80000e8:	4b04      	ldr	r3, [pc, #16]	@ (80000fc <frame_dummy+0x14>)
 80000ea:	b510      	push	{r4, lr}
 80000ec:	2b00      	cmp	r3, #0
 80000ee:	d003      	beq.n	80000f8 <frame_dummy+0x10>
 80000f0:	4903      	ldr	r1, [pc, #12]	@ (8000100 <frame_dummy+0x18>)
 80000f2:	4804      	ldr	r0, [pc, #16]	@ (8000104 <frame_dummy+0x1c>)
 80000f4:	e000      	b.n	80000f8 <frame_dummy+0x10>
 80000f6:	bf00      	nop
 80000f8:	bd10      	pop	{r4, pc}
 80000fa:	46c0      	nop			@ (mov r8, r8)
 80000fc:	00000000 	.word	0x00000000
 8000100:	20000014 	.word	0x20000014
 8000104:	08003e48 	.word	0x08003e48

08000108 <__gnu_thumb1_case_uqi>:
 8000108:	b402      	push	{r1}
 800010a:	4671      	mov	r1, lr
 800010c:	0849      	lsrs	r1, r1, #1
 800010e:	0049      	lsls	r1, r1, #1
 8000110:	5c09      	ldrb	r1, [r1, r0]
 8000112:	0049      	lsls	r1, r1, #1
 8000114:	448e      	add	lr, r1
 8000116:	bc02      	pop	{r1}
 8000118:	4770      	bx	lr
 800011a:	46c0      	nop			@ (mov r8, r8)

0800011c <__udivsi3>:
 800011c:	2200      	movs	r2, #0
 800011e:	0843      	lsrs	r3, r0, #1
 8000120:	428b      	cmp	r3, r1
 8000122:	d374      	bcc.n	800020e <__udivsi3+0xf2>
 8000124:	0903      	lsrs	r3, r0, #4
 8000126:	428b      	cmp	r3, r1
 8000128:	d35f      	bcc.n	80001ea <__udivsi3+0xce>
 800012a:	0a03      	lsrs	r3, r0, #8
 800012c:	428b      	cmp	r3, r1
 800012e:	d344      	bcc.n	80001ba <__udivsi3+0x9e>
 8000130:	0b03      	lsrs	r3, r0, #12
 8000132:	428b      	cmp	r3, r1
 8000134:	d328      	bcc.n	8000188 <__udivsi3+0x6c>
 8000136:	0c03      	lsrs	r3, r0, #16
 8000138:	428b      	cmp	r3, r1
 800013a:	d30d      	bcc.n	8000158 <__udivsi3+0x3c>
 800013c:	22ff      	movs	r2, #255	@ 0xff
 800013e:	0209      	lsls	r1, r1, #8
 8000140:	ba12      	rev	r2, r2
 8000142:	0c03      	lsrs	r3, r0, #16
 8000144:	428b      	cmp	r3, r1
 8000146:	d302      	bcc.n	800014e <__udivsi3+0x32>
 8000148:	1212      	asrs	r2, r2, #8
 800014a:	0209      	lsls	r1, r1, #8
 800014c:	d065      	beq.n	800021a <__udivsi3+0xfe>
 800014e:	0b03      	lsrs	r3, r0, #12
 8000150:	428b      	cmp	r3, r1
 8000152:	d319      	bcc.n	8000188 <__udivsi3+0x6c>
 8000154:	e000      	b.n	8000158 <__udivsi3+0x3c>
 8000156:	0a09      	lsrs	r1, r1, #8
 8000158:	0bc3      	lsrs	r3, r0, #15
 800015a:	428b      	cmp	r3, r1
 800015c:	d301      	bcc.n	8000162 <__udivsi3+0x46>
 800015e:	03cb      	lsls	r3, r1, #15
 8000160:	1ac0      	subs	r0, r0, r3
 8000162:	4152      	adcs	r2, r2
 8000164:	0b83      	lsrs	r3, r0, #14
 8000166:	428b      	cmp	r3, r1
 8000168:	d301      	bcc.n	800016e <__udivsi3+0x52>
 800016a:	038b      	lsls	r3, r1, #14
 800016c:	1ac0      	subs	r0, r0, r3
 800016e:	4152      	adcs	r2, r2
 8000170:	0b43      	lsrs	r3, r0, #13
 8000172:	428b      	cmp	r3, r1
 8000174:	d301      	bcc.n	800017a <__udivsi3+0x5e>
 8000176:	034b      	lsls	r3, r1, #13
 8000178:	1ac0      	subs	r0, r0, r3
 800017a:	4152      	adcs	r2, r2
 800017c:	0b03      	lsrs	r3, r0, #12
 800017e:	428b      	cmp	r3, r1
 8000180:	d301      	bcc.n	8000186 <__udivsi3+0x6a>
 8000182:	030b      	lsls	r3, r1, #12
 8000184:	1ac0      	subs	r0, r0, r3
 8000186:	4152      	adcs	r2, r2
 8000188:	0ac3      	lsrs	r3, r0, #11
 800018a:	428b      	cmp	r3, r1
 800018c:	d301      	bcc.n	8000192 <__udivsi3+0x76>
 800018e:	02cb      	lsls	r3, r1, #11
 8000190:	1ac0      	subs	r0, r0, r3
 8000192:	4152      	adcs	r2, r2
 8000194:	0a83      	lsrs	r3, r0, #10
 8000196:	428b      	cmp	r3, r1
 8000198:	d301      	bcc.n	800019e <__udivsi3+0x82>
 800019a:	028b      	lsls	r3, r1, #10
 800019c:	1ac0      	subs	r0, r0, r3
 800019e:	4152      	adcs	r2, r2
 80001a0:	0a43      	lsrs	r3, r0, #9
 80001a2:	428b      	cmp	r3, r1
 80001a4:	d301      	bcc.n	80001aa <__udivsi3+0x8e>
 80001a6:	024b      	lsls	r3, r1, #9
 80001a8:	1ac0      	subs	r0, r0, r3
 80001aa:	4152      	adcs	r2, r2
 80001ac:	0a03      	lsrs	r3, r0, #8
 80001ae:	428b      	cmp	r3, r1
 80001b0:	d301      	bcc.n	80001b6 <__udivsi3+0x9a>
 80001b2:	020b      	lsls	r3, r1, #8
 80001b4:	1ac0      	subs	r0, r0, r3
 80001b6:	4152      	adcs	r2, r2
 80001b8:	d2cd      	bcs.n	8000156 <__udivsi3+0x3a>
 80001ba:	09c3      	lsrs	r3, r0, #7
 80001bc:	428b      	cmp	r3, r1
 80001be:	d301      	bcc.n	80001c4 <__udivsi3+0xa8>
 80001c0:	01cb      	lsls	r3, r1, #7
 80001c2:	1ac0      	subs	r0, r0, r3
 80001c4:	4152      	adcs	r2, r2
 80001c6:	0983      	lsrs	r3, r0, #6
 80001c8:	428b      	cmp	r3, r1
 80001ca:	d301      	bcc.n	80001d0 <__udivsi3+0xb4>
 80001cc:	018b      	lsls	r3, r1, #6
 80001ce:	1ac0      	subs	r0, r0, r3
 80001d0:	4152      	adcs	r2, r2
 80001d2:	0943      	lsrs	r3, r0, #5
 80001d4:	428b      	cmp	r3, r1
 80001d6:	d301      	bcc.n	80001dc <__udivsi3+0xc0>
 80001d8:	014b      	lsls	r3, r1, #5
 80001da:	1ac0      	subs	r0, r0, r3
 80001dc:	4152      	adcs	r2, r2
 80001de:	0903      	lsrs	r3, r0, #4
 80001e0:	428b      	cmp	r3, r1
 80001e2:	d301      	bcc.n	80001e8 <__udivsi3+0xcc>
 80001e4:	010b      	lsls	r3, r1, #4
 80001e6:	1ac0      	subs	r0, r0, r3
 80001e8:	4152      	adcs	r2, r2
 80001ea:	08c3      	lsrs	r3, r0, #3
 80001ec:	428b      	cmp	r3, r1
 80001ee:	d301      	bcc.n	80001f4 <__udivsi3+0xd8>
 80001f0:	00cb      	lsls	r3, r1, #3
 80001f2:	1ac0      	subs	r0, r0, r3
 80001f4:	4152      	adcs	r2, r2
 80001f6:	0883      	lsrs	r3, r0, #2
 80001f8:	428b      	cmp	r3, r1
 80001fa:	d301      	bcc.n	8000200 <__udivsi3+0xe4>
 80001fc:	008b      	lsls	r3, r1, #2
 80001fe:	1ac0      	subs	r0, r0, r3
 8000200:	4152      	adcs	r2, r2
 8000202:	0843      	lsrs	r3, r0, #1
 8000204:	428b      	cmp	r3, r1
 8000206:	d301      	bcc.n	800020c <__udivsi3+0xf0>
 8000208:	004b      	lsls	r3, r1, #1
 800020a:	1ac0      	subs	r0, r0, r3
 800020c:	4152      	adcs	r2, r2
 800020e:	1a41      	subs	r1, r0, r1
 8000210:	d200      	bcs.n	8000214 <__udivsi3+0xf8>
 8000212:	4601      	mov	r1, r0
 8000214:	4152      	adcs	r2, r2
 8000216:	4610      	mov	r0, r2
 8000218:	4770      	bx	lr
 800021a:	e7ff      	b.n	800021c <__udivsi3+0x100>
 800021c:	b501      	push	{r0, lr}
 800021e:	2000      	movs	r0, #0
 8000220:	f000 f806 	bl	8000230 <__aeabi_idiv0>
 8000224:	bd02      	pop	{r1, pc}
 8000226:	46c0      	nop			@ (mov r8, r8)

08000228 <__aeabi_uidivmod>:
 8000228:	2900      	cmp	r1, #0
 800022a:	d0f7      	beq.n	800021c <__udivsi3+0x100>
 800022c:	e776      	b.n	800011c <__udivsi3>
 800022e:	4770      	bx	lr

08000230 <__aeabi_idiv0>:
 8000230:	4770      	bx	lr
 8000232:	46c0      	nop			@ (mov r8, r8)

08000234 <__aeabi_uldivmod>:
 8000234:	2b00      	cmp	r3, #0
 8000236:	d111      	bne.n	800025c <__aeabi_uldivmod+0x28>
 8000238:	2a00      	cmp	r2, #0
 800023a:	d10f      	bne.n	800025c <__aeabi_uldivmod+0x28>
 800023c:	2900      	cmp	r1, #0
 800023e:	d100      	bne.n	8000242 <__aeabi_uldivmod+0xe>
 8000240:	2800      	cmp	r0, #0
 8000242:	d002      	beq.n	800024a <__aeabi_uldivmod+0x16>
 8000244:	2100      	movs	r1, #0
 8000246:	43c9      	mvns	r1, r1
 8000248:	0008      	movs	r0, r1
 800024a:	b407      	push	{r0, r1, r2}
 800024c:	4802      	ldr	r0, [pc, #8]	@ (8000258 <__aeabi_uldivmod+0x24>)
 800024e:	a102      	add	r1, pc, #8	@ (adr r1, 8000258 <__aeabi_uldivmod+0x24>)
 8000250:	1840      	adds	r0, r0, r1
 8000252:	9002      	str	r0, [sp, #8]
 8000254:	bd03      	pop	{r0, r1, pc}
 8000256:	46c0      	nop			@ (mov r8, r8)
 8000258:	ffffffd9 	.word	0xffffffd9
 800025c:	b403      	push	{r0, r1}
 800025e:	4668      	mov	r0, sp
 8000260:	b501      	push	{r0, lr}
 8000262:	9802      	ldr	r0, [sp, #8]
 8000264:	f000 f806 	bl	8000274 <__udivmoddi4>
 8000268:	9b01      	ldr	r3, [sp, #4]
 800026a:	469e      	mov	lr, r3
 800026c:	b002      	add	sp, #8
 800026e:	bc0c      	pop	{r2, r3}
 8000270:	4770      	bx	lr
 8000272:	46c0      	nop			@ (mov r8, r8)

08000274 <__udivmoddi4>:
 8000274:	b5f0      	push	{r4, r5, r6, r7, lr}
 8000276:	4657      	mov	r7, sl
 8000278:	464e      	mov	r6, r9
 800027a:	4645      	mov	r5, r8
 800027c:	46de      	mov	lr, fp
 800027e:	b5e0      	push	{r5, r6, r7, lr}
 8000280:	0004      	movs	r4, r0
 8000282:	000d      	movs	r5, r1
 8000284:	4692      	mov	sl, r2
 8000286:	4699      	mov	r9, r3
 8000288:	b083      	sub	sp, #12
 800028a:	428b      	cmp	r3, r1
 800028c:	d830      	bhi.n	80002f0 <__udivmoddi4+0x7c>
 800028e:	d02d      	beq.n	80002ec <__udivmoddi4+0x78>
 8000290:	4649      	mov	r1, r9
 8000292:	4650      	mov	r0, sl
 8000294:	f000 f8ba 	bl	800040c <__clzdi2>
 8000298:	0029      	movs	r1, r5
 800029a:	0006      	movs	r6, r0
 800029c:	0020      	movs	r0, r4
 800029e:	f000 f8b5 	bl	800040c <__clzdi2>
 80002a2:	1a33      	subs	r3, r6, r0
 80002a4:	4698      	mov	r8, r3
 80002a6:	3b20      	subs	r3, #32
 80002a8:	d434      	bmi.n	8000314 <__udivmoddi4+0xa0>
 80002aa:	469b      	mov	fp, r3
 80002ac:	4653      	mov	r3, sl
 80002ae:	465a      	mov	r2, fp
 80002b0:	4093      	lsls	r3, r2
 80002b2:	4642      	mov	r2, r8
 80002b4:	001f      	movs	r7, r3
 80002b6:	4653      	mov	r3, sl
 80002b8:	4093      	lsls	r3, r2
 80002ba:	001e      	movs	r6, r3
 80002bc:	42af      	cmp	r7, r5
 80002be:	d83b      	bhi.n	8000338 <__udivmoddi4+0xc4>
 80002c0:	42af      	cmp	r7, r5
 80002c2:	d100      	bne.n	80002c6 <__udivmoddi4+0x52>
 80002c4:	e079      	b.n	80003ba <__udivmoddi4+0x146>
 80002c6:	465b      	mov	r3, fp
 80002c8:	1ba4      	subs	r4, r4, r6
 80002ca:	41bd      	sbcs	r5, r7
 80002cc:	2b00      	cmp	r3, #0
 80002ce:	da00      	bge.n	80002d2 <__udivmoddi4+0x5e>
 80002d0:	e076      	b.n	80003c0 <__udivmoddi4+0x14c>
 80002d2:	2200      	movs	r2, #0
 80002d4:	2300      	movs	r3, #0
 80002d6:	9200      	str	r2, [sp, #0]
 80002d8:	9301      	str	r3, [sp, #4]
 80002da:	2301      	movs	r3, #1
 80002dc:	465a      	mov	r2, fp
 80002de:	4093      	lsls	r3, r2
 80002e0:	9301      	str	r3, [sp, #4]
 80002e2:	2301      	movs	r3, #1
 80002e4:	4642      	mov	r2, r8
 80002e6:	4093      	lsls	r3, r2
 80002e8:	9300      	str	r3, [sp, #0]
 80002ea:	e029      	b.n	8000340 <__udivmoddi4+0xcc>
 80002ec:	4282      	cmp	r2, r0
 80002ee:	d9cf      	bls.n	8000290 <__udivmoddi4+0x1c>
 80002f0:	2200      	movs	r2, #0
 80002f2:	2300      	movs	r3, #0
 80002f4:	9200      	str	r2, [sp, #0]
 80002f6:	9301      	str	r3, [sp, #4]
 80002f8:	9b0c      	ldr	r3, [sp, #48]	@ 0x30
 80002fa:	2b00      	cmp	r3, #0
 80002fc:	d001      	beq.n	8000302 <__udivmoddi4+0x8e>
 80002fe:	601c      	str	r4, [r3, #0]
 8000300:	605d      	str	r5, [r3, #4]
 8000302:	9800      	ldr	r0, [sp, #0]
 8000304:	9901      	ldr	r1, [sp, #4]
 8000306:	b003      	add	sp, #12
 8000308:	bcf0      	pop	{r4, r5, r6, r7}
 800030a:	46bb      	mov	fp, r7
 800030c:	46b2      	mov	sl, r6
 800030e:	46a9      	mov	r9, r5
 8000310:	46a0      	mov	r8, r4
 8000312:	bdf0      	pop	{r4, r5, r6, r7, pc}
 8000314:	4642      	mov	r2, r8
 8000316:	469b      	mov	fp, r3
 8000318:	2320      	movs	r3, #32
 800031a:	1a9b      	subs	r3, r3, r2
 800031c:	4652      	mov	r2, sl
 800031e:	40da      	lsrs	r2, r3
 8000320:	4641      	mov	r1, r8
 8000322:	0013      	movs	r3, r2
 8000324:	464a      	mov	r2, r9
 8000326:	408a      	lsls	r2, r1
 8000328:	0017      	movs	r7, r2
 800032a:	4642      	mov	r2, r8
 800032c:	431f      	orrs	r7, r3
 800032e:	4653      	mov	r3, sl
 8000330:	4093      	lsls	r3, r2
 8000332:	001e      	movs	r6, r3
 8000334:	42af      	cmp	r7, r5
 8000336:	d9c3      	bls.n	80002c0 <__udivmoddi4+0x4c>
 8000338:	2200      	movs	r2, #0
 800033a:	2300      	movs	r3, #0
 800033c:	9200      	str	r2, [sp, #0]
 800033e:	9301      	str	r3, [sp, #4]
 8000340:	4643      	mov	r3, r8
 8000342:	2b00      	cmp	r3, #0
 8000344:	d0d8      	beq.n	80002f8 <__udivmoddi4+0x84>
 8000346:	07fb      	lsls	r3, r7, #31
 8000348:	0872      	lsrs	r2, r6, #1
 800034a:	431a      	orrs	r2, r3
 800034c:	4646      	mov	r6, r8
 800034e:	087b      	lsrs	r3, r7, #1
 8000350:	e00e      	b.n	8000370 <__udivmoddi4+0xfc>
 8000352:	42ab      	cmp	r3, r5
 8000354:	d101      	bne.n	800035a <__udivmoddi4+0xe6>
 8000356:	42a2      	cmp	r2, r4
 8000358:	d80c      	bhi.n	8000374 <__udivmoddi4+0x100>
 800035a:	1aa4      	subs	r4, r4, r2
 800035c:	419d      	sbcs	r5, r3
 800035e:	2001      	movs	r0, #1
 8000360:	1924      	adds	r4, r4, r4
 8000362:	416d      	adcs	r5, r5
 8000364:	2100      	movs	r1, #0
 8000366:	3e01      	subs	r6, #1
 8000368:	1824      	adds	r4, r4, r0
 800036a:	414d      	adcs	r5, r1
 800036c:	2e00      	cmp	r6, #0
 800036e:	d006      	beq.n	800037e <__udivmoddi4+0x10a>
 8000370:	42ab      	cmp	r3, r5
 8000372:	d9ee      	bls.n	8000352 <__udivmoddi4+0xde>
 8000374:	3e01      	subs	r6, #1
 8000376:	1924      	adds	r4, r4, r4
 8000378:	416d      	adcs	r5, r5
 800037a:	2e00      	cmp	r6, #0
 800037c:	d1f8      	bne.n	8000370 <__udivmoddi4+0xfc>
 800037e:	9800      	ldr	r0, [sp, #0]
 8000380:	9901      	ldr	r1, [sp, #4]
 8000382:	465b      	mov	r3, fp
 8000384:	1900      	adds	r0, r0, r4
 8000386:	4169      	adcs	r1, r5
 8000388:	2b00      	cmp	r3, #0
 800038a:	db24      	blt.n	80003d6 <__udivmoddi4+0x162>
 800038c:	002b      	movs	r3, r5
 800038e:	465a      	mov	r2, fp
 8000390:	4644      	mov	r4, r8
 8000392:	40d3      	lsrs	r3, r2
 8000394:	002a      	movs	r2, r5
 8000396:	40e2      	lsrs	r2, r4
 8000398:	001c      	movs	r4, r3
 800039a:	465b      	mov	r3, fp
 800039c:	0015      	movs	r5, r2
 800039e:	2b00      	cmp	r3, #0
 80003a0:	db2a      	blt.n	80003f8 <__udivmoddi4+0x184>
 80003a2:	0026      	movs	r6, r4
 80003a4:	409e      	lsls	r6, r3
 80003a6:	0033      	movs	r3, r6
 80003a8:	0026      	movs	r6, r4
 80003aa:	4647      	mov	r7, r8
 80003ac:	40be      	lsls	r6, r7
 80003ae:	0032      	movs	r2, r6
 80003b0:	1a80      	subs	r0, r0, r2
 80003b2:	4199      	sbcs	r1, r3
 80003b4:	9000      	str	r0, [sp, #0]
 80003b6:	9101      	str	r1, [sp, #4]
 80003b8:	e79e      	b.n	80002f8 <__udivmoddi4+0x84>
 80003ba:	42a3      	cmp	r3, r4
 80003bc:	d8bc      	bhi.n	8000338 <__udivmoddi4+0xc4>
 80003be:	e782      	b.n	80002c6 <__udivmoddi4+0x52>
 80003c0:	4642      	mov	r2, r8
 80003c2:	2320      	movs	r3, #32
 80003c4:	2100      	movs	r1, #0
 80003c6:	1a9b      	subs	r3, r3, r2
 80003c8:	2200      	movs	r2, #0
 80003ca:	9100      	str	r1, [sp, #0]
 80003cc:	9201      	str	r2, [sp, #4]
 80003ce:	2201      	movs	r2, #1
 80003d0:	40da      	lsrs	r2, r3
 80003d2:	9201      	str	r2, [sp, #4]
 80003d4:	e785      	b.n	80002e2 <__udivmoddi4+0x6e>
 80003d6:	4642      	mov	r2, r8
 80003d8:	2320      	movs	r3, #32
 80003da:	1a9b      	subs	r3, r3, r2
 80003dc:	002a      	movs	r2, r5
 80003de:	4646      	mov	r6, r8
 80003e0:	409a      	lsls	r2, r3
 80003e2:	0023      	movs	r3, r4
 80003e4:	40f3      	lsrs	r3, r6
 80003e6:	4644      	mov	r4, r8
 80003e8:	4313      	orrs	r3, r2
 80003ea:	002a      	movs	r2, r5
 80003ec:	40e2      	lsrs	r2, r4
 80003ee:	001c      	movs	r4, r3
 80003f0:	465b      	mov	r3, fp
 80003f2:	0015      	movs	r5, r2
 80003f4:	2b00      	cmp	r3, #0
 80003f6:	dad4      	bge.n	80003a2 <__udivmoddi4+0x12e>
 80003f8:	4642      	mov	r2, r8
 80003fa:	002f      	movs	r7, r5
 80003fc:	2320      	movs	r3, #32
 80003fe:	0026      	movs	r6, r4
 8000400:	4097      	lsls	r7, r2
 8000402:	1a9b      	subs	r3, r3, r2
 8000404:	40de      	lsrs	r6, r3
 8000406:	003b      	movs	r3, r7
 8000408:	4333      	orrs	r3, r6
 800040a:	e7cd      	b.n	80003a8 <__udivmoddi4+0x134>

0800040c <__clzdi2>:
 800040c:	b510      	push	{r4, lr}
 800040e:	2900      	cmp	r1, #0
 8000410:	d103      	bne.n	800041a <__clzdi2+0xe>
 8000412:	f000 f807 	bl	8000424 <__clzsi2>
 8000416:	3020      	adds	r0, #32
 8000418:	e002      	b.n	8000420 <__clzdi2+0x14>
 800041a:	0008      	movs	r0, r1
 800041c:	f000 f802 	bl	8000424 <__clzsi2>
 8000420:	bd10      	pop	{r4, pc}
 8000422:	46c0      	nop			@ (mov r8, r8)

08000424 <__clzsi2>:
 8000424:	211c      	movs	r1, #28
 8000426:	2301      	movs	r3, #1
 8000428:	041b      	lsls	r3, r3, #16
 800042a:	4298      	cmp	r0, r3
 800042c:	d301      	bcc.n	8000432 <__clzsi2+0xe>
 800042e:	0c00      	lsrs	r0, r0, #16
 8000430:	3910      	subs	r1, #16
 8000432:	0a1b      	lsrs	r3, r3, #8
 8000434:	4298      	cmp	r0, r3
 8000436:	d301      	bcc.n	800043c <__clzsi2+0x18>
 8000438:	0a00      	lsrs	r0, r0, #8
 800043a:	3908      	subs	r1, #8
 800043c:	091b      	lsrs	r3, r3, #4
 800043e:	4298      	cmp	r0, r3
 8000440:	d301      	bcc.n	8000446 <__clzsi2+0x22>
 8000442:	0900      	lsrs	r0, r0, #4
 8000444:	3904      	subs	r1, #4
 8000446:	a202      	add	r2, pc, #8	@ (adr r2, 8000450 <__clzsi2+0x2c>)
 8000448:	5c10      	ldrb	r0, [r2, r0]
 800044a:	1840      	adds	r0, r0, r1
 800044c:	4770      	bx	lr
 800044e:	46c0      	nop			@ (mov r8, r8)
 8000450:	02020304 	.word	0x02020304
 8000454:	01010101 	.word	0x01010101
	...

08000460 <ws2812bSend>:
 8000460:	b5f7      	push	{r0, r1, r2, r4, r5, r6, r7, lr}
 8000462:	2797      	movs	r7, #151	@ 0x97
 8000464:	9201      	str	r2, [sp, #4]
 8000466:	00bf      	lsls	r7, r7, #2
 8000468:	5dc3      	ldrb	r3, [r0, r7]
 800046a:	0004      	movs	r4, r0
 800046c:	000e      	movs	r6, r1
 800046e:	2002      	movs	r0, #2
 8000470:	2b00      	cmp	r3, #0
 8000472:	d00b      	beq.n	800048c <ws2812bSend+0x2c>
 8000474:	2500      	movs	r5, #0
 8000476:	0020      	movs	r0, r4
 8000478:	f000 f816 	bl	80004a8 <ws2812bGetBytesArray>
 800047c:	55e5      	strb	r5, [r4, r7]
 800047e:	0030      	movs	r0, r6
 8000480:	88a3      	ldrh	r3, [r4, #4]
 8000482:	9901      	ldr	r1, [sp, #4]
 8000484:	1da2      	adds	r2, r4, #6
 8000486:	f001 fc28 	bl	8001cda <HAL_TIM_PWM_Start_DMA>
 800048a:	0028      	movs	r0, r5
 800048c:	bdfe      	pop	{r1, r2, r3, r4, r5, r6, r7, pc}
	...

08000490 <ws2812bLedStructInit>:
 8000490:	4b04      	ldr	r3, [pc, #16]	@ (80004a4 <ws2812bLedStructInit+0x14>)
 8000492:	2200      	movs	r2, #0
 8000494:	6003      	str	r3, [r0, #0]
 8000496:	2318      	movs	r3, #24
 8000498:	33ff      	adds	r3, #255	@ 0xff
 800049a:	8083      	strh	r3, [r0, #4]
 800049c:	3346      	adds	r3, #70	@ 0x46
 800049e:	33ff      	adds	r3, #255	@ 0xff
 80004a0:	54c2      	strb	r2, [r0, r3]
 80004a2:	4770      	bx	lr
 80004a4:	0027000a 	.word	0x0027000a

080004a8 <ws2812bGetBytesArray>:
 80004a8:	2300      	movs	r3, #0
 80004aa:	b5f7      	push	{r0, r1, r2, r4, r5, r6, r7, lr}
 80004ac:	001c      	movs	r4, r3
 80004ae:	8842      	ldrh	r2, [r0, #2]
 80004b0:	4293      	cmp	r3, r2
 80004b2:	db09      	blt.n	80004c8 <ws2812bGetBytesArray+0x20>
 80004b4:	260d      	movs	r6, #13
 80004b6:	8803      	ldrh	r3, [r0, #0]
 80004b8:	0052      	lsls	r2, r2, #1
 80004ba:	3b01      	subs	r3, #1
 80004bc:	1882      	adds	r2, r0, r2
 80004be:	b25b      	sxtb	r3, r3
 80004c0:	9201      	str	r2, [sp, #4]
 80004c2:	061a      	lsls	r2, r3, #24
 80004c4:	d506      	bpl.n	80004d4 <ws2812bGetBytesArray+0x2c>
 80004c6:	bdf7      	pop	{r0, r1, r2, r4, r5, r6, r7, pc}
 80004c8:	0059      	lsls	r1, r3, #1
 80004ca:	1841      	adds	r1, r0, r1
 80004cc:	3301      	adds	r3, #1
 80004ce:	80cc      	strh	r4, [r1, #6]
 80004d0:	b21b      	sxth	r3, r3
 80004d2:	e7ed      	b.n	80004b0 <ws2812bGetBytesArray+0x8>
 80004d4:	228d      	movs	r2, #141	@ 0x8d
 80004d6:	0092      	lsls	r2, r2, #2
 80004d8:	0099      	lsls	r1, r3, #2
 80004da:	1882      	adds	r2, r0, r2
 80004dc:	5857      	ldr	r7, [r2, r1]
 80004de:	2230      	movs	r2, #48	@ 0x30
 80004e0:	2401      	movs	r4, #1
 80004e2:	435a      	muls	r2, r3
 80004e4:	9901      	ldr	r1, [sp, #4]
 80004e6:	46a4      	mov	ip, r4
 80004e8:	1852      	adds	r2, r2, r1
 80004ea:	2117      	movs	r1, #23
 80004ec:	4664      	mov	r4, ip
 80004ee:	408c      	lsls	r4, r1
 80004f0:	251a      	movs	r5, #26
 80004f2:	4227      	tst	r7, r4
 80004f4:	d100      	bne.n	80004f8 <ws2812bGetBytesArray+0x50>
 80004f6:	0035      	movs	r5, r6
 80004f8:	8695      	strh	r5, [r2, #52]	@ 0x34
 80004fa:	3a02      	subs	r2, #2
 80004fc:	3901      	subs	r1, #1
 80004fe:	d2f5      	bcs.n	80004ec <ws2812bGetBytesArray+0x44>
 8000500:	3b01      	subs	r3, #1
 8000502:	e7de      	b.n	80004c2 <ws2812bGetBytesArray+0x1a>

08000504 <ws2812bSetRGB>:
 8000504:	b510      	push	{r4, lr}
 8000506:	318c      	adds	r1, #140	@ 0x8c
 8000508:	0089      	lsls	r1, r1, #2
 800050a:	1841      	adds	r1, r0, r1
 800050c:	4805      	ldr	r0, [pc, #20]	@ (8000524 <ws2812bSetRGB+0x20>)
 800050e:	ac02      	add	r4, sp, #8
 8000510:	5c82      	ldrb	r2, [r0, r2]
 8000512:	5cc3      	ldrb	r3, [r0, r3]
 8000514:	7824      	ldrb	r4, [r4, #0]
 8000516:	0212      	lsls	r2, r2, #8
 8000518:	431a      	orrs	r2, r3
 800051a:	5d03      	ldrb	r3, [r0, r4]
 800051c:	041b      	lsls	r3, r3, #16
 800051e:	431a      	orrs	r2, r3
 8000520:	604a      	str	r2, [r1, #4]
 8000522:	bd10      	pop	{r4, pc}
 8000524:	08003e60 	.word	0x08003e60

08000528 <ws2812bClearAll>:
 8000528:	238d      	movs	r3, #141	@ 0x8d
 800052a:	b510      	push	{r4, lr}
 800052c:	8802      	ldrh	r2, [r0, #0]
 800052e:	009b      	lsls	r3, r3, #2
 8000530:	2100      	movs	r1, #0
 8000532:	0092      	lsls	r2, r2, #2
 8000534:	18c0      	adds	r0, r0, r3
 8000536:	f003 fc51 	bl	8003ddc <memset>
 800053a:	bd10      	pop	{r4, pc}

0800053c <Recois_Trans>:
 800053c:	b510      	push	{r4, lr}
 800053e:	24fa      	movs	r4, #250	@ 0xfa
 8000540:	00a4      	lsls	r4, r4, #2
 8000542:	0020      	movs	r0, r4
 8000544:	f002 fa02 	bl	800294c <osDelay>
 8000548:	e7fb      	b.n	8000542 <Recois_Trans+0x6>
	...

0800054c <Allumage_LED>:
 800054c:	b5f7      	push	{r0, r1, r2, r4, r5, r6, r7, lr}
 800054e:	2697      	movs	r6, #151	@ 0x97
 8000550:	2701      	movs	r7, #1
 8000552:	00b6      	lsls	r6, r6, #2
 8000554:	2500      	movs	r5, #0
 8000556:	4c13      	ldr	r4, [pc, #76]	@ (80005a4 <Allumage_LED+0x58>)
 8000558:	002b      	movs	r3, r5
 800055a:	22ff      	movs	r2, #255	@ 0xff
 800055c:	0039      	movs	r1, r7
 800055e:	0020      	movs	r0, r4
 8000560:	9500      	str	r5, [sp, #0]
 8000562:	f7ff ffcf 	bl	8000504 <ws2812bSetRGB>
 8000566:	002a      	movs	r2, r5
 8000568:	002b      	movs	r3, r5
 800056a:	2106      	movs	r1, #6
 800056c:	0020      	movs	r0, r4
 800056e:	9500      	str	r5, [sp, #0]
 8000570:	f7ff ffc8 	bl	8000504 <ws2812bSetRGB>
 8000574:	4d0c      	ldr	r5, [pc, #48]	@ (80005a8 <Allumage_LED+0x5c>)
 8000576:	2204      	movs	r2, #4
 8000578:	0029      	movs	r1, r5
 800057a:	0020      	movs	r0, r4
 800057c:	55a7      	strb	r7, [r4, r6]
 800057e:	f7ff ff6f 	bl	8000460 <ws2812bSend>
 8000582:	5da3      	ldrb	r3, [r4, r6]
 8000584:	2b00      	cmp	r3, #0
 8000586:	d0fc      	beq.n	8000582 <Allumage_LED+0x36>
 8000588:	20fa      	movs	r0, #250	@ 0xfa
 800058a:	0080      	lsls	r0, r0, #2
 800058c:	f002 f9de 	bl	800294c <osDelay>
 8000590:	0020      	movs	r0, r4
 8000592:	f7ff ffc9 	bl	8000528 <ws2812bClearAll>
 8000596:	2204      	movs	r2, #4
 8000598:	0029      	movs	r1, r5
 800059a:	0020      	movs	r0, r4
 800059c:	f7ff ff60 	bl	8000460 <ws2812bSend>
 80005a0:	e7d8      	b.n	8000554 <Allumage_LED+0x8>
 80005a2:	46c0      	nop			@ (mov r8, r8)
 80005a4:	2000002c 	.word	0x2000002c
 80005a8:	20000364 	.word	0x20000364

080005ac <SystemClock_Config>:
 80005ac:	b510      	push	{r4, lr}
 80005ae:	b098      	sub	sp, #96	@ 0x60
 80005b0:	221c      	movs	r2, #28
 80005b2:	2100      	movs	r1, #0
 80005b4:	a80d      	add	r0, sp, #52	@ 0x34
 80005b6:	f003 fc11 	bl	8003ddc <memset>
 80005ba:	2214      	movs	r2, #20
 80005bc:	2100      	movs	r1, #0
 80005be:	4668      	mov	r0, sp
 80005c0:	f003 fc0c 	bl	8003ddc <memset>
 80005c4:	2218      	movs	r2, #24
 80005c6:	2100      	movs	r1, #0
 80005c8:	a805      	add	r0, sp, #20
 80005ca:	f003 fc07 	bl	8003ddc <memset>
 80005ce:	491f      	ldr	r1, [pc, #124]	@ (800064c <SystemClock_Config+0xa0>)
 80005d0:	4b1f      	ldr	r3, [pc, #124]	@ (8000650 <SystemClock_Config+0xa4>)
 80005d2:	680a      	ldr	r2, [r1, #0]
 80005d4:	2401      	movs	r4, #1
 80005d6:	401a      	ands	r2, r3
 80005d8:	2380      	movs	r3, #128	@ 0x80
 80005da:	011b      	lsls	r3, r3, #4
 80005dc:	4313      	orrs	r3, r2
 80005de:	600b      	str	r3, [r1, #0]
 80005e0:	23a0      	movs	r3, #160	@ 0xa0
 80005e2:	02db      	lsls	r3, r3, #11
 80005e4:	930c      	str	r3, [sp, #48]	@ 0x30
 80005e6:	2302      	movs	r3, #2
 80005e8:	9314      	str	r3, [sp, #80]	@ 0x50
 80005ea:	2380      	movs	r3, #128	@ 0x80
 80005ec:	025b      	lsls	r3, r3, #9
 80005ee:	9315      	str	r3, [sp, #84]	@ 0x54
 80005f0:	23a0      	movs	r3, #160	@ 0xa0
 80005f2:	035b      	lsls	r3, r3, #13
 80005f4:	9316      	str	r3, [sp, #88]	@ 0x58
 80005f6:	2380      	movs	r3, #128	@ 0x80
 80005f8:	a80b      	add	r0, sp, #44	@ 0x2c
 80005fa:	03db      	lsls	r3, r3, #15
 80005fc:	940b      	str	r4, [sp, #44]	@ 0x2c
 80005fe:	9317      	str	r3, [sp, #92]	@ 0x5c
 8000600:	f000 fdb4 	bl	800116c <HAL_RCC_OscConfig>
 8000604:	2800      	cmp	r0, #0
 8000606:	d001      	beq.n	800060c <SystemClock_Config+0x60>
 8000608:	b672      	cpsid	i
 800060a:	e7fe      	b.n	800060a <SystemClock_Config+0x5e>
 800060c:	230f      	movs	r3, #15
 800060e:	9002      	str	r0, [sp, #8]
 8000610:	9300      	str	r3, [sp, #0]
 8000612:	9003      	str	r0, [sp, #12]
 8000614:	3b0c      	subs	r3, #12
 8000616:	9004      	str	r0, [sp, #16]
 8000618:	0021      	movs	r1, r4
 800061a:	4668      	mov	r0, sp
 800061c:	9301      	str	r3, [sp, #4]
 800061e:	f000 fff3 	bl	8001608 <HAL_RCC_ClockConfig>
 8000622:	2800      	cmp	r0, #0
 8000624:	d001      	beq.n	800062a <SystemClock_Config+0x7e>
 8000626:	b672      	cpsid	i
 8000628:	e7fe      	b.n	8000628 <SystemClock_Config+0x7c>
 800062a:	230a      	movs	r3, #10
 800062c:	9009      	str	r0, [sp, #36]	@ 0x24
 800062e:	9305      	str	r3, [sp, #20]
 8000630:	a805      	add	r0, sp, #20
 8000632:	3b06      	subs	r3, #6
 8000634:	9307      	str	r3, [sp, #28]
 8000636:	f001 f8d5 	bl	80017e4 <HAL_RCCEx_PeriphCLKConfig>
 800063a:	2800      	cmp	r0, #0
 800063c:	d001      	beq.n	8000642 <SystemClock_Config+0x96>
 800063e:	b672      	cpsid	i
 8000640:	e7fe      	b.n	8000640 <SystemClock_Config+0x94>
 8000642:	f000 fd4d 	bl	80010e0 <HAL_RCC_EnableCSS>
 8000646:	b018      	add	sp, #96	@ 0x60
 8000648:	bd10      	pop	{r4, pc}
 800064a:	46c0      	nop			@ (mov r8, r8)
 800064c:	40007000 	.word	0x40007000
 8000650:	ffffe7ff 	.word	0xffffe7ff

08000654 <main>:
 8000654:	b5f0      	push	{r4, r5, r6, r7, lr}
 8000656:	2601      	movs	r6, #1
 8000658:	2702      	movs	r7, #2
 800065a:	b08f      	sub	sp, #60	@ 0x3c
 800065c:	f000 fa58 	bl	8000b10 <HAL_Init>
 8000660:	4876      	ldr	r0, [pc, #472]	@ (800083c <main+0x1e8>)
 8000662:	f7ff ff15 	bl	8000490 <ws2812bLedStructInit>
 8000666:	f7ff ffa1 	bl	80005ac <SystemClock_Config>
 800066a:	2214      	movs	r2, #20
 800066c:	2100      	movs	r1, #0
 800066e:	a809      	add	r0, sp, #36	@ 0x24
 8000670:	f003 fbb4 	bl	8003ddc <memset>
 8000674:	20a0      	movs	r0, #160	@ 0xa0
 8000676:	4d72      	ldr	r5, [pc, #456]	@ (8000840 <main+0x1ec>)
 8000678:	2200      	movs	r2, #0
 800067a:	6aeb      	ldr	r3, [r5, #44]	@ 0x2c
 800067c:	2104      	movs	r1, #4
 800067e:	4333      	orrs	r3, r6
 8000680:	62eb      	str	r3, [r5, #44]	@ 0x2c
 8000682:	6aeb      	ldr	r3, [r5, #44]	@ 0x2c
 8000684:	05c0      	lsls	r0, r0, #23
 8000686:	4033      	ands	r3, r6
 8000688:	9301      	str	r3, [sp, #4]
 800068a:	9b01      	ldr	r3, [sp, #4]
 800068c:	6aeb      	ldr	r3, [r5, #44]	@ 0x2c
 800068e:	2400      	movs	r4, #0
 8000690:	433b      	orrs	r3, r7
 8000692:	62eb      	str	r3, [r5, #44]	@ 0x2c
 8000694:	6aeb      	ldr	r3, [r5, #44]	@ 0x2c
 8000696:	403b      	ands	r3, r7
 8000698:	9302      	str	r3, [sp, #8]
 800069a:	9b02      	ldr	r3, [sp, #8]
 800069c:	f000 fc72 	bl	8000f84 <HAL_GPIO_WritePin>
 80006a0:	2200      	movs	r2, #0
 80006a2:	2120      	movs	r1, #32
 80006a4:	4867      	ldr	r0, [pc, #412]	@ (8000844 <main+0x1f0>)
 80006a6:	f000 fc6d 	bl	8000f84 <HAL_GPIO_WritePin>
 80006aa:	20a0      	movs	r0, #160	@ 0xa0
 80006ac:	2304      	movs	r3, #4
 80006ae:	a909      	add	r1, sp, #36	@ 0x24
 80006b0:	05c0      	lsls	r0, r0, #23
 80006b2:	9309      	str	r3, [sp, #36]	@ 0x24
 80006b4:	960a      	str	r6, [sp, #40]	@ 0x28
 80006b6:	940b      	str	r4, [sp, #44]	@ 0x2c
 80006b8:	940c      	str	r4, [sp, #48]	@ 0x30
 80006ba:	f000 fbaf 	bl	8000e1c <HAL_GPIO_Init>
 80006be:	20a0      	movs	r0, #160	@ 0xa0
 80006c0:	2308      	movs	r3, #8
 80006c2:	a909      	add	r1, sp, #36	@ 0x24
 80006c4:	05c0      	lsls	r0, r0, #23
 80006c6:	9309      	str	r3, [sp, #36]	@ 0x24
 80006c8:	940a      	str	r4, [sp, #40]	@ 0x28
 80006ca:	940b      	str	r4, [sp, #44]	@ 0x2c
 80006cc:	f000 fba6 	bl	8000e1c <HAL_GPIO_Init>
 80006d0:	485c      	ldr	r0, [pc, #368]	@ (8000844 <main+0x1f0>)
 80006d2:	a909      	add	r1, sp, #36	@ 0x24
 80006d4:	9709      	str	r7, [sp, #36]	@ 0x24
 80006d6:	940a      	str	r4, [sp, #40]	@ 0x28
 80006d8:	940b      	str	r4, [sp, #44]	@ 0x2c
 80006da:	f000 fb9f 	bl	8000e1c <HAL_GPIO_Init>
 80006de:	2320      	movs	r3, #32
 80006e0:	4858      	ldr	r0, [pc, #352]	@ (8000844 <main+0x1f0>)
 80006e2:	a909      	add	r1, sp, #36	@ 0x24
 80006e4:	9309      	str	r3, [sp, #36]	@ 0x24
 80006e6:	960a      	str	r6, [sp, #40]	@ 0x28
 80006e8:	940b      	str	r4, [sp, #44]	@ 0x2c
 80006ea:	940c      	str	r4, [sp, #48]	@ 0x30
 80006ec:	f000 fb96 	bl	8000e1c <HAL_GPIO_Init>
 80006f0:	6b2b      	ldr	r3, [r5, #48]	@ 0x30
 80006f2:	2103      	movs	r1, #3
 80006f4:	4333      	orrs	r3, r6
 80006f6:	632b      	str	r3, [r5, #48]	@ 0x30
 80006f8:	6b2b      	ldr	r3, [r5, #48]	@ 0x30
 80006fa:	0022      	movs	r2, r4
 80006fc:	4033      	ands	r3, r6
 80006fe:	200a      	movs	r0, #10
 8000700:	9300      	str	r3, [sp, #0]
 8000702:	9b00      	ldr	r3, [sp, #0]
 8000704:	f000 fa2a 	bl	8000b5c <HAL_NVIC_SetPriority>
 8000708:	200a      	movs	r0, #10
 800070a:	f000 fa51 	bl	8000bb0 <HAL_NVIC_EnableIRQ>
 800070e:	4d4e      	ldr	r5, [pc, #312]	@ (8000848 <main+0x1f4>)
 8000710:	4b4e      	ldr	r3, [pc, #312]	@ (800084c <main+0x1f8>)
 8000712:	0028      	movs	r0, r5
 8000714:	602b      	str	r3, [r5, #0]
 8000716:	4b4e      	ldr	r3, [pc, #312]	@ (8000850 <main+0x1fc>)
 8000718:	60ac      	str	r4, [r5, #8]
 800071a:	606b      	str	r3, [r5, #4]
 800071c:	60ee      	str	r6, [r5, #12]
 800071e:	612c      	str	r4, [r5, #16]
 8000720:	616c      	str	r4, [r5, #20]
 8000722:	61ac      	str	r4, [r5, #24]
 8000724:	61ec      	str	r4, [r5, #28]
 8000726:	622c      	str	r4, [r5, #32]
 8000728:	f000 fc32 	bl	8000f90 <HAL_I2C_Init>
 800072c:	0001      	movs	r1, r0
 800072e:	42a0      	cmp	r0, r4
 8000730:	d001      	beq.n	8000736 <main+0xe2>
 8000732:	b672      	cpsid	i
 8000734:	e7fe      	b.n	8000734 <main+0xe0>
 8000736:	0028      	movs	r0, r5
 8000738:	f000 fc88 	bl	800104c <HAL_I2CEx_ConfigAnalogFilter>
 800073c:	1e01      	subs	r1, r0, #0
 800073e:	d001      	beq.n	8000744 <main+0xf0>
 8000740:	b672      	cpsid	i
 8000742:	e7fe      	b.n	8000742 <main+0xee>
 8000744:	0028      	movs	r0, r5
 8000746:	f000 fca7 	bl	8001098 <HAL_I2CEx_ConfigDigitalFilter>
 800074a:	1e03      	subs	r3, r0, #0
 800074c:	d001      	beq.n	8000752 <main+0xfe>
 800074e:	b672      	cpsid	i
 8000750:	e7fe      	b.n	8000750 <main+0xfc>
 8000752:	4840      	ldr	r0, [pc, #256]	@ (8000854 <main+0x200>)
 8000754:	4a40      	ldr	r2, [pc, #256]	@ (8000858 <main+0x204>)
 8000756:	6083      	str	r3, [r0, #8]
 8000758:	6002      	str	r2, [r0, #0]
 800075a:	22e1      	movs	r2, #225	@ 0xe1
 800075c:	0252      	lsls	r2, r2, #9
 800075e:	6042      	str	r2, [r0, #4]
 8000760:	220c      	movs	r2, #12
 8000762:	60c3      	str	r3, [r0, #12]
 8000764:	6103      	str	r3, [r0, #16]
 8000766:	6142      	str	r2, [r0, #20]
 8000768:	6183      	str	r3, [r0, #24]
 800076a:	61c3      	str	r3, [r0, #28]
 800076c:	6203      	str	r3, [r0, #32]
 800076e:	6243      	str	r3, [r0, #36]	@ 0x24
 8000770:	f002 f828 	bl	80027c4 <HAL_UART_Init>
 8000774:	1e05      	subs	r5, r0, #0
 8000776:	d001      	beq.n	800077c <main+0x128>
 8000778:	b672      	cpsid	i
 800077a:	e7fe      	b.n	800077a <main+0x126>
 800077c:	0001      	movs	r1, r0
 800077e:	2210      	movs	r2, #16
 8000780:	a805      	add	r0, sp, #20
 8000782:	f003 fb2b 	bl	8003ddc <memset>
 8000786:	2208      	movs	r2, #8
 8000788:	0029      	movs	r1, r5
 800078a:	a803      	add	r0, sp, #12
 800078c:	f003 fb26 	bl	8003ddc <memset>
 8000790:	2210      	movs	r2, #16
 8000792:	0029      	movs	r1, r5
 8000794:	a809      	add	r0, sp, #36	@ 0x24
 8000796:	f003 fb21 	bl	8003ddc <memset>
 800079a:	2380      	movs	r3, #128	@ 0x80
 800079c:	4c2f      	ldr	r4, [pc, #188]	@ (800085c <main+0x208>)
 800079e:	05db      	lsls	r3, r3, #23
 80007a0:	6023      	str	r3, [r4, #0]
 80007a2:	2327      	movs	r3, #39	@ 0x27
 80007a4:	0020      	movs	r0, r4
 80007a6:	6065      	str	r5, [r4, #4]
 80007a8:	60a5      	str	r5, [r4, #8]
 80007aa:	60e3      	str	r3, [r4, #12]
 80007ac:	6125      	str	r5, [r4, #16]
 80007ae:	6165      	str	r5, [r4, #20]
 80007b0:	f001 f93d 	bl	8001a2e <HAL_TIM_Base_Init>
 80007b4:	2800      	cmp	r0, #0
 80007b6:	d001      	beq.n	80007bc <main+0x168>
 80007b8:	b672      	cpsid	i
 80007ba:	e7fe      	b.n	80007ba <main+0x166>
 80007bc:	2380      	movs	r3, #128	@ 0x80
 80007be:	0020      	movs	r0, r4
 80007c0:	015b      	lsls	r3, r3, #5
 80007c2:	a905      	add	r1, sp, #20
 80007c4:	9305      	str	r3, [sp, #20]
 80007c6:	f001 fb1f 	bl	8001e08 <HAL_TIM_ConfigClockSource>
 80007ca:	2800      	cmp	r0, #0
 80007cc:	d001      	beq.n	80007d2 <main+0x17e>
 80007ce:	b672      	cpsid	i
 80007d0:	e7fe      	b.n	80007d0 <main+0x17c>
 80007d2:	0020      	movs	r0, r4
 80007d4:	f001 fa5d 	bl	8001c92 <HAL_TIM_PWM_Init>
 80007d8:	2800      	cmp	r0, #0
 80007da:	d001      	beq.n	80007e0 <main+0x18c>
 80007dc:	b672      	cpsid	i
 80007de:	e7fe      	b.n	80007de <main+0x18a>
 80007e0:	9003      	str	r0, [sp, #12]
 80007e2:	9004      	str	r0, [sp, #16]
 80007e4:	a903      	add	r1, sp, #12
 80007e6:	0020      	movs	r0, r4
 80007e8:	f001 fc34 	bl	8002054 <HAL_TIMEx_MasterConfigSynchronization>
 80007ec:	2800      	cmp	r0, #0
 80007ee:	d001      	beq.n	80007f4 <main+0x1a0>
 80007f0:	b672      	cpsid	i
 80007f2:	e7fe      	b.n	80007f2 <main+0x19e>
 80007f4:	2360      	movs	r3, #96	@ 0x60
 80007f6:	900a      	str	r0, [sp, #40]	@ 0x28
 80007f8:	900b      	str	r0, [sp, #44]	@ 0x2c
 80007fa:	900c      	str	r0, [sp, #48]	@ 0x30
 80007fc:	2204      	movs	r2, #4
 80007fe:	0020      	movs	r0, r4
 8000800:	a909      	add	r1, sp, #36	@ 0x24
 8000802:	9309      	str	r3, [sp, #36]	@ 0x24
 8000804:	f001 fa72 	bl	8001cec <HAL_TIM_PWM_ConfigChannel>
 8000808:	1e05      	subs	r5, r0, #0
 800080a:	d001      	beq.n	8000810 <main+0x1bc>
 800080c:	b672      	cpsid	i
 800080e:	e7fe      	b.n	800080e <main+0x1ba>
 8000810:	0020      	movs	r0, r4
 8000812:	f000 f8b3 	bl	800097c <HAL_TIM_MspPostInit>
 8000816:	f002 f809 	bl	800282c <osKernelInitialize>
 800081a:	0029      	movs	r1, r5
 800081c:	4a10      	ldr	r2, [pc, #64]	@ (8000860 <main+0x20c>)
 800081e:	4811      	ldr	r0, [pc, #68]	@ (8000864 <main+0x210>)
 8000820:	f002 f83c 	bl	800289c <osThreadNew>
 8000824:	4b10      	ldr	r3, [pc, #64]	@ (8000868 <main+0x214>)
 8000826:	0029      	movs	r1, r5
 8000828:	6018      	str	r0, [r3, #0]
 800082a:	4a10      	ldr	r2, [pc, #64]	@ (800086c <main+0x218>)
 800082c:	4810      	ldr	r0, [pc, #64]	@ (8000870 <main+0x21c>)
 800082e:	f002 f835 	bl	800289c <osThreadNew>
 8000832:	4b10      	ldr	r3, [pc, #64]	@ (8000874 <main+0x220>)
 8000834:	6018      	str	r0, [r3, #0]
 8000836:	f002 f813 	bl	8002860 <osKernelStart>
 800083a:	e7fe      	b.n	800083a <main+0x1e6>
 800083c:	2000002c 	.word	0x2000002c
 8000840:	40021000 	.word	0x40021000
 8000844:	50000400 	.word	0x50000400
 8000848:	200003a4 	.word	0x200003a4
 800084c:	40005400 	.word	0x40005400
 8000850:	00b07cb4 	.word	0x00b07cb4
 8000854:	20000294 	.word	0x20000294
 8000858:	40004400 	.word	0x40004400
 800085c:	20000364 	.word	0x20000364
 8000860:	08003fb0 	.word	0x08003fb0
 8000864:	0800054d 	.word	0x0800054d
 8000868:	20000290 	.word	0x20000290
 800086c:	08003f8c 	.word	0x08003f8c
 8000870:	0800053d 	.word	0x0800053d
 8000874:	2000028c 	.word	0x2000028c

08000878 <HAL_TIM_PWM_PulseFinishedCallback>:
 8000878:	2380      	movs	r3, #128	@ 0x80
 800087a:	6802      	ldr	r2, [r0, #0]
 800087c:	b510      	push	{r4, lr}
 800087e:	05db      	lsls	r3, r3, #23
 8000880:	429a      	cmp	r2, r3
 8000882:	d107      	bne.n	8000894 <HAL_TIM_PWM_PulseFinishedCallback+0x1c>
 8000884:	2297      	movs	r2, #151	@ 0x97
 8000886:	2101      	movs	r1, #1
 8000888:	4b03      	ldr	r3, [pc, #12]	@ (8000898 <HAL_TIM_PWM_PulseFinishedCallback+0x20>)
 800088a:	0092      	lsls	r2, r2, #2
 800088c:	5499      	strb	r1, [r3, r2]
 800088e:	3103      	adds	r1, #3
 8000890:	f001 fa27 	bl	8001ce2 <HAL_TIM_PWM_Stop_DMA>
 8000894:	bd10      	pop	{r4, pc}
 8000896:	46c0      	nop			@ (mov r8, r8)
 8000898:	2000002c 	.word	0x2000002c

0800089c <Error_Handler>:
 800089c:	b672      	cpsid	i
 800089e:	e7fe      	b.n	800089e <Error_Handler+0x2>

080008a0 <HAL_MspInit>:
 80008a0:	2201      	movs	r2, #1
 80008a2:	4b08      	ldr	r3, [pc, #32]	@ (80008c4 <HAL_MspInit+0x24>)
 80008a4:	b510      	push	{r4, lr}
 80008a6:	6b59      	ldr	r1, [r3, #52]	@ 0x34
 80008a8:	2002      	movs	r0, #2
 80008aa:	430a      	orrs	r2, r1
 80008ac:	635a      	str	r2, [r3, #52]	@ 0x34
 80008ae:	2280      	movs	r2, #128	@ 0x80
 80008b0:	6b99      	ldr	r1, [r3, #56]	@ 0x38
 80008b2:	0552      	lsls	r2, r2, #21
 80008b4:	430a      	orrs	r2, r1
 80008b6:	639a      	str	r2, [r3, #56]	@ 0x38
 80008b8:	2103      	movs	r1, #3
 80008ba:	2200      	movs	r2, #0
 80008bc:	4240      	negs	r0, r0
 80008be:	f000 f94d 	bl	8000b5c <HAL_NVIC_SetPriority>
 80008c2:	bd10      	pop	{r4, pc}
 80008c4:	40021000 	.word	0x40021000

080008c8 <HAL_I2C_MspInit>:
 80008c8:	b510      	push	{r4, lr}
 80008ca:	0004      	movs	r4, r0
 80008cc:	b086      	sub	sp, #24
 80008ce:	2214      	movs	r2, #20
 80008d0:	2100      	movs	r1, #0
 80008d2:	a801      	add	r0, sp, #4
 80008d4:	f003 fa82 	bl	8003ddc <memset>
 80008d8:	4b0f      	ldr	r3, [pc, #60]	@ (8000918 <HAL_I2C_MspInit+0x50>)
 80008da:	6822      	ldr	r2, [r4, #0]
 80008dc:	429a      	cmp	r2, r3
 80008de:	d119      	bne.n	8000914 <HAL_I2C_MspInit+0x4c>
 80008e0:	2202      	movs	r2, #2
 80008e2:	4c0e      	ldr	r4, [pc, #56]	@ (800091c <HAL_I2C_MspInit+0x54>)
 80008e4:	480e      	ldr	r0, [pc, #56]	@ (8000920 <HAL_I2C_MspInit+0x58>)
 80008e6:	6ae3      	ldr	r3, [r4, #44]	@ 0x2c
 80008e8:	a901      	add	r1, sp, #4
 80008ea:	4313      	orrs	r3, r2
 80008ec:	62e3      	str	r3, [r4, #44]	@ 0x2c
 80008ee:	6ae3      	ldr	r3, [r4, #44]	@ 0x2c
 80008f0:	4013      	ands	r3, r2
 80008f2:	9300      	str	r3, [sp, #0]
 80008f4:	9b00      	ldr	r3, [sp, #0]
 80008f6:	23c0      	movs	r3, #192	@ 0xc0
 80008f8:	9301      	str	r3, [sp, #4]
 80008fa:	3bae      	subs	r3, #174	@ 0xae
 80008fc:	9302      	str	r3, [sp, #8]
 80008fe:	3b0f      	subs	r3, #15
 8000900:	9304      	str	r3, [sp, #16]
 8000902:	3b02      	subs	r3, #2
 8000904:	9305      	str	r3, [sp, #20]
 8000906:	f000 fa89 	bl	8000e1c <HAL_GPIO_Init>
 800090a:	2380      	movs	r3, #128	@ 0x80
 800090c:	6ba2      	ldr	r2, [r4, #56]	@ 0x38
 800090e:	039b      	lsls	r3, r3, #14
 8000910:	4313      	orrs	r3, r2
 8000912:	63a3      	str	r3, [r4, #56]	@ 0x38
 8000914:	b006      	add	sp, #24
 8000916:	bd10      	pop	{r4, pc}
 8000918:	40005400 	.word	0x40005400
 800091c:	40021000 	.word	0x40021000
 8000920:	50000400 	.word	0x50000400

08000924 <HAL_TIM_Base_MspInit>:
 8000924:	2380      	movs	r3, #128	@ 0x80
 8000926:	6802      	ldr	r2, [r0, #0]
 8000928:	b570      	push	{r4, r5, r6, lr}
 800092a:	05db      	lsls	r3, r3, #23
 800092c:	0005      	movs	r5, r0
 800092e:	429a      	cmp	r2, r3
 8000930:	d11d      	bne.n	800096e <HAL_TIM_Base_MspInit+0x4a>
 8000932:	2301      	movs	r3, #1
 8000934:	4a0e      	ldr	r2, [pc, #56]	@ (8000970 <HAL_TIM_Base_MspInit+0x4c>)
 8000936:	4c0f      	ldr	r4, [pc, #60]	@ (8000974 <HAL_TIM_Base_MspInit+0x50>)
 8000938:	6b91      	ldr	r1, [r2, #56]	@ 0x38
 800093a:	0020      	movs	r0, r4
 800093c:	430b      	orrs	r3, r1
 800093e:	6393      	str	r3, [r2, #56]	@ 0x38
 8000940:	4b0d      	ldr	r3, [pc, #52]	@ (8000978 <HAL_TIM_Base_MspInit+0x54>)
 8000942:	2280      	movs	r2, #128	@ 0x80
 8000944:	6023      	str	r3, [r4, #0]
 8000946:	2308      	movs	r3, #8
 8000948:	6063      	str	r3, [r4, #4]
 800094a:	18db      	adds	r3, r3, r3
 800094c:	60a3      	str	r3, [r4, #8]
 800094e:	2300      	movs	r3, #0
 8000950:	6122      	str	r2, [r4, #16]
 8000952:	1892      	adds	r2, r2, r2
 8000954:	60e3      	str	r3, [r4, #12]
 8000956:	6162      	str	r2, [r4, #20]
 8000958:	61a3      	str	r3, [r4, #24]
 800095a:	61e3      	str	r3, [r4, #28]
 800095c:	6223      	str	r3, [r4, #32]
 800095e:	f000 f94d 	bl	8000bfc <HAL_DMA_Init>
 8000962:	2800      	cmp	r0, #0
 8000964:	d001      	beq.n	800096a <HAL_TIM_Base_MspInit+0x46>
 8000966:	f7ff ff99 	bl	800089c <Error_Handler>
 800096a:	626c      	str	r4, [r5, #36]	@ 0x24
 800096c:	62a5      	str	r5, [r4, #40]	@ 0x28
 800096e:	bd70      	pop	{r4, r5, r6, pc}
 8000970:	40021000 	.word	0x40021000
 8000974:	2000031c 	.word	0x2000031c
 8000978:	40020030 	.word	0x40020030

0800097c <HAL_TIM_MspPostInit>:
 800097c:	b510      	push	{r4, lr}
 800097e:	0004      	movs	r4, r0
 8000980:	b086      	sub	sp, #24
 8000982:	2214      	movs	r2, #20
 8000984:	2100      	movs	r1, #0
 8000986:	a801      	add	r0, sp, #4
 8000988:	f003 fa28 	bl	8003ddc <memset>
 800098c:	2380      	movs	r3, #128	@ 0x80
 800098e:	6822      	ldr	r2, [r4, #0]
 8000990:	05db      	lsls	r3, r3, #23
 8000992:	429a      	cmp	r2, r3
 8000994:	d111      	bne.n	80009ba <HAL_TIM_MspPostInit+0x3e>
 8000996:	2101      	movs	r1, #1
 8000998:	4b09      	ldr	r3, [pc, #36]	@ (80009c0 <HAL_TIM_MspPostInit+0x44>)
 800099a:	20a0      	movs	r0, #160	@ 0xa0
 800099c:	6ada      	ldr	r2, [r3, #44]	@ 0x2c
 800099e:	05c0      	lsls	r0, r0, #23
 80009a0:	430a      	orrs	r2, r1
 80009a2:	62da      	str	r2, [r3, #44]	@ 0x2c
 80009a4:	6adb      	ldr	r3, [r3, #44]	@ 0x2c
 80009a6:	400b      	ands	r3, r1
 80009a8:	9300      	str	r3, [sp, #0]
 80009aa:	9b00      	ldr	r3, [sp, #0]
 80009ac:	2302      	movs	r3, #2
 80009ae:	a901      	add	r1, sp, #4
 80009b0:	9301      	str	r3, [sp, #4]
 80009b2:	9302      	str	r3, [sp, #8]
 80009b4:	9305      	str	r3, [sp, #20]
 80009b6:	f000 fa31 	bl	8000e1c <HAL_GPIO_Init>
 80009ba:	b006      	add	sp, #24
 80009bc:	bd10      	pop	{r4, pc}
 80009be:	46c0      	nop			@ (mov r8, r8)
 80009c0:	40021000 	.word	0x40021000

080009c4 <HAL_UART_MspInit>:
 80009c4:	b510      	push	{r4, lr}
 80009c6:	0004      	movs	r4, r0
 80009c8:	b086      	sub	sp, #24
 80009ca:	2214      	movs	r2, #20
 80009cc:	2100      	movs	r1, #0
 80009ce:	a801      	add	r0, sp, #4
 80009d0:	f003 fa04 	bl	8003ddc <memset>
 80009d4:	4b14      	ldr	r3, [pc, #80]	@ (8000a28 <HAL_UART_MspInit+0x64>)
 80009d6:	6822      	ldr	r2, [r4, #0]
 80009d8:	429a      	cmp	r2, r3
 80009da:	d123      	bne.n	8000a24 <HAL_UART_MspInit+0x60>
 80009dc:	2280      	movs	r2, #128	@ 0x80
 80009de:	4b13      	ldr	r3, [pc, #76]	@ (8000a2c <HAL_UART_MspInit+0x68>)
 80009e0:	0292      	lsls	r2, r2, #10
 80009e2:	6b99      	ldr	r1, [r3, #56]	@ 0x38
 80009e4:	20a0      	movs	r0, #160	@ 0xa0
 80009e6:	430a      	orrs	r2, r1
 80009e8:	2101      	movs	r1, #1
 80009ea:	639a      	str	r2, [r3, #56]	@ 0x38
 80009ec:	6ada      	ldr	r2, [r3, #44]	@ 0x2c
 80009ee:	2403      	movs	r4, #3
 80009f0:	430a      	orrs	r2, r1
 80009f2:	62da      	str	r2, [r3, #44]	@ 0x2c
 80009f4:	6adb      	ldr	r3, [r3, #44]	@ 0x2c
 80009f6:	05c0      	lsls	r0, r0, #23
 80009f8:	400b      	ands	r3, r1
 80009fa:	9300      	str	r3, [sp, #0]
 80009fc:	9b00      	ldr	r3, [sp, #0]
 80009fe:	2382      	movs	r3, #130	@ 0x82
 8000a00:	021b      	lsls	r3, r3, #8
 8000a02:	9301      	str	r3, [sp, #4]
 8000a04:	2302      	movs	r3, #2
 8000a06:	a901      	add	r1, sp, #4
 8000a08:	9302      	str	r3, [sp, #8]
 8000a0a:	18db      	adds	r3, r3, r3
 8000a0c:	9305      	str	r3, [sp, #20]
 8000a0e:	9404      	str	r4, [sp, #16]
 8000a10:	f000 fa04 	bl	8000e1c <HAL_GPIO_Init>
 8000a14:	201c      	movs	r0, #28
 8000a16:	2200      	movs	r2, #0
 8000a18:	0021      	movs	r1, r4
 8000a1a:	f000 f89f 	bl	8000b5c <HAL_NVIC_SetPriority>
 8000a1e:	201c      	movs	r0, #28
 8000a20:	f000 f8c6 	bl	8000bb0 <HAL_NVIC_EnableIRQ>
 8000a24:	b006      	add	sp, #24
 8000a26:	bd10      	pop	{r4, pc}
 8000a28:	40004400 	.word	0x40004400
 8000a2c:	40021000 	.word	0x40021000

08000a30 <NMI_Handler>:
 8000a30:	b510      	push	{r4, lr}
 8000a32:	f000 fec9 	bl	80017c8 <HAL_RCC_NMI_IRQHandler>
 8000a36:	e7fe      	b.n	8000a36 <NMI_Handler+0x6>

08000a38 <HardFault_Handler>:
 8000a38:	e7fe      	b.n	8000a38 <HardFault_Handler>

08000a3a <SysTick_Handler>:
 8000a3a:	b510      	push	{r4, lr}
 8000a3c:	f000 f87c 	bl	8000b38 <HAL_IncTick>
 8000a40:	f002 fe36 	bl	80036b0 <xTaskGetSchedulerState>
 8000a44:	2801      	cmp	r0, #1
 8000a46:	d001      	beq.n	8000a4c <SysTick_Handler+0x12>
 8000a48:	f003 f8ec 	bl	8003c24 <xPortSysTickHandler>
 8000a4c:	bd10      	pop	{r4, pc}
	...

08000a50 <DMA1_Channel2_3_IRQHandler>:
 8000a50:	b510      	push	{r4, lr}
 8000a52:	4802      	ldr	r0, [pc, #8]	@ (8000a5c <DMA1_Channel2_3_IRQHandler+0xc>)
 8000a54:	f000 f997 	bl	8000d86 <HAL_DMA_IRQHandler>
 8000a58:	bd10      	pop	{r4, pc}
 8000a5a:	46c0      	nop			@ (mov r8, r8)
 8000a5c:	2000031c 	.word	0x2000031c

08000a60 <USART2_IRQHandler>:
 8000a60:	b510      	push	{r4, lr}
 8000a62:	4802      	ldr	r0, [pc, #8]	@ (8000a6c <USART2_IRQHandler+0xc>)
 8000a64:	f001 fb5c 	bl	8002120 <HAL_UART_IRQHandler>
 8000a68:	bd10      	pop	{r4, pc}
 8000a6a:	46c0      	nop			@ (mov r8, r8)
 8000a6c:	20000294 	.word	0x20000294

08000a70 <SystemInit>:
 8000a70:	4770      	bx	lr
	...

08000a74 <Reset_Handler>:
 8000a74:	480d      	ldr	r0, [pc, #52]	@ (8000aac <LoopForever+0x2>)
 8000a76:	4685      	mov	sp, r0
 8000a78:	f7ff fffa 	bl	8000a70 <SystemInit>
 8000a7c:	480c      	ldr	r0, [pc, #48]	@ (8000ab0 <LoopForever+0x6>)
 8000a7e:	490d      	ldr	r1, [pc, #52]	@ (8000ab4 <LoopForever+0xa>)
 8000a80:	4a0d      	ldr	r2, [pc, #52]	@ (8000ab8 <LoopForever+0xe>)
 8000a82:	2300      	movs	r3, #0
 8000a84:	e002      	b.n	8000a8c <LoopCopyDataInit>

08000a86 <CopyDataInit>:
 8000a86:	58d4      	ldr	r4, [r2, r3]
 8000a88:	50c4      	str	r4, [r0, r3]
 8000a8a:	3304      	adds	r3, #4

08000a8c <LoopCopyDataInit>:
 8000a8c:	18c4      	adds	r4, r0, r3
 8000a8e:	428c      	cmp	r4, r1
 8000a90:	d3f9      	bcc.n	8000a86 <CopyDataInit>
 8000a92:	4a0a      	ldr	r2, [pc, #40]	@ (8000abc <LoopForever+0x12>)
 8000a94:	4c0a      	ldr	r4, [pc, #40]	@ (8000ac0 <LoopForever+0x16>)
 8000a96:	2300      	movs	r3, #0
 8000a98:	e001      	b.n	8000a9e <LoopFillZerobss>

08000a9a <FillZerobss>:
 8000a9a:	6013      	str	r3, [r2, #0]
 8000a9c:	3204      	adds	r2, #4

08000a9e <LoopFillZerobss>:
 8000a9e:	42a2      	cmp	r2, r4
 8000aa0:	d3fb      	bcc.n	8000a9a <FillZerobss>
 8000aa2:	f003 f9a3 	bl	8003dec <__libc_init_array>
 8000aa6:	f7ff fdd5 	bl	8000654 <main>

08000aaa <LoopForever>:
 8000aaa:	e7fe      	b.n	8000aaa <LoopForever>
 8000aac:	20002000 	.word	0x20002000
 8000ab0:	20000000 	.word	0x20000000
 8000ab4:	20000010 	.word	0x20000010
 8000ab8:	08004008 	.word	0x08004008
 8000abc:	20000010 	.word	0x20000010
 8000ac0:	20001d38 	.word	0x20001d38

08000ac4 <ADC1_COMP_IRQHandler>:
 8000ac4:	e7fe      	b.n	8000ac4 <ADC1_COMP_IRQHandler>
	...

08000ac8 <HAL_InitTick>:
 8000ac8:	b570      	push	{r4, r5, r6, lr}
 8000aca:	0005      	movs	r5, r0
 8000acc:	20fa      	movs	r0, #250	@ 0xfa
 8000ace:	4b0d      	ldr	r3, [pc, #52]	@ (8000b04 <HAL_InitTick+0x3c>)
 8000ad0:	0080      	lsls	r0, r0, #2
 8000ad2:	7819      	ldrb	r1, [r3, #0]
 8000ad4:	f7ff fb22 	bl	800011c <__udivsi3>
 8000ad8:	4c0b      	ldr	r4, [pc, #44]	@ (8000b08 <HAL_InitTick+0x40>)
 8000ada:	0001      	movs	r1, r0
 8000adc:	6820      	ldr	r0, [r4, #0]
 8000ade:	f7ff fb1d 	bl	800011c <__udivsi3>
 8000ae2:	f000 f871 	bl	8000bc8 <HAL_SYSTICK_Config>
 8000ae6:	0004      	movs	r4, r0
 8000ae8:	2001      	movs	r0, #1
 8000aea:	2c00      	cmp	r4, #0
 8000aec:	d109      	bne.n	8000b02 <HAL_InitTick+0x3a>
 8000aee:	2d03      	cmp	r5, #3
 8000af0:	d807      	bhi.n	8000b02 <HAL_InitTick+0x3a>
 8000af2:	3802      	subs	r0, #2
 8000af4:	0022      	movs	r2, r4
 8000af6:	0029      	movs	r1, r5
 8000af8:	f000 f830 	bl	8000b5c <HAL_NVIC_SetPriority>
 8000afc:	0020      	movs	r0, r4
 8000afe:	4b03      	ldr	r3, [pc, #12]	@ (8000b0c <HAL_InitTick+0x44>)
 8000b00:	601d      	str	r5, [r3, #0]
 8000b02:	bd70      	pop	{r4, r5, r6, pc}
 8000b04:	20000004 	.word	0x20000004
 8000b08:	20000000 	.word	0x20000000
 8000b0c:	20000008 	.word	0x20000008

08000b10 <HAL_Init>:
 8000b10:	2340      	movs	r3, #64	@ 0x40
 8000b12:	4a08      	ldr	r2, [pc, #32]	@ (8000b34 <HAL_Init+0x24>)
 8000b14:	b510      	push	{r4, lr}
 8000b16:	6811      	ldr	r1, [r2, #0]
 8000b18:	2003      	movs	r0, #3
 8000b1a:	430b      	orrs	r3, r1
 8000b1c:	6013      	str	r3, [r2, #0]
 8000b1e:	f7ff ffd3 	bl	8000ac8 <HAL_InitTick>
 8000b22:	1e04      	subs	r4, r0, #0
 8000b24:	d103      	bne.n	8000b2e <HAL_Init+0x1e>
 8000b26:	f7ff febb 	bl	80008a0 <HAL_MspInit>
 8000b2a:	0020      	movs	r0, r4
 8000b2c:	bd10      	pop	{r4, pc}
 8000b2e:	2401      	movs	r4, #1
 8000b30:	e7fb      	b.n	8000b2a <HAL_Init+0x1a>
 8000b32:	46c0      	nop			@ (mov r8, r8)
 8000b34:	40022000 	.word	0x40022000

08000b38 <HAL_IncTick>:
 8000b38:	4a03      	ldr	r2, [pc, #12]	@ (8000b48 <HAL_IncTick+0x10>)
 8000b3a:	4b04      	ldr	r3, [pc, #16]	@ (8000b4c <HAL_IncTick+0x14>)
 8000b3c:	6811      	ldr	r1, [r2, #0]
 8000b3e:	781b      	ldrb	r3, [r3, #0]
 8000b40:	185b      	adds	r3, r3, r1
 8000b42:	6013      	str	r3, [r2, #0]
 8000b44:	4770      	bx	lr
 8000b46:	46c0      	nop			@ (mov r8, r8)
 8000b48:	200003f8 	.word	0x200003f8
 8000b4c:	20000004 	.word	0x20000004

08000b50 <HAL_GetTick>:
 8000b50:	4b01      	ldr	r3, [pc, #4]	@ (8000b58 <HAL_GetTick+0x8>)
 8000b52:	6818      	ldr	r0, [r3, #0]
 8000b54:	4770      	bx	lr
 8000b56:	46c0      	nop			@ (mov r8, r8)
 8000b58:	200003f8 	.word	0x200003f8

08000b5c <HAL_NVIC_SetPriority>:
 8000b5c:	b510      	push	{r4, lr}
 8000b5e:	24ff      	movs	r4, #255	@ 0xff
 8000b60:	2203      	movs	r2, #3
 8000b62:	000b      	movs	r3, r1
 8000b64:	0021      	movs	r1, r4
 8000b66:	4002      	ands	r2, r0
 8000b68:	00d2      	lsls	r2, r2, #3
 8000b6a:	4091      	lsls	r1, r2
 8000b6c:	019b      	lsls	r3, r3, #6
 8000b6e:	4023      	ands	r3, r4
 8000b70:	43c9      	mvns	r1, r1
 8000b72:	4093      	lsls	r3, r2
 8000b74:	2800      	cmp	r0, #0
 8000b76:	db0a      	blt.n	8000b8e <HAL_NVIC_SetPriority+0x32>
 8000b78:	24c0      	movs	r4, #192	@ 0xc0
 8000b7a:	4a0b      	ldr	r2, [pc, #44]	@ (8000ba8 <HAL_NVIC_SetPriority+0x4c>)
 8000b7c:	0880      	lsrs	r0, r0, #2
 8000b7e:	0080      	lsls	r0, r0, #2
 8000b80:	1880      	adds	r0, r0, r2
 8000b82:	00a4      	lsls	r4, r4, #2
 8000b84:	5902      	ldr	r2, [r0, r4]
 8000b86:	400a      	ands	r2, r1
 8000b88:	4313      	orrs	r3, r2
 8000b8a:	5103      	str	r3, [r0, r4]
 8000b8c:	bd10      	pop	{r4, pc}
 8000b8e:	220f      	movs	r2, #15
 8000b90:	4010      	ands	r0, r2
 8000b92:	3808      	subs	r0, #8
 8000b94:	4a05      	ldr	r2, [pc, #20]	@ (8000bac <HAL_NVIC_SetPriority+0x50>)
 8000b96:	0880      	lsrs	r0, r0, #2
 8000b98:	0080      	lsls	r0, r0, #2
 8000b9a:	1880      	adds	r0, r0, r2
 8000b9c:	69c2      	ldr	r2, [r0, #28]
 8000b9e:	4011      	ands	r1, r2
 8000ba0:	4319      	orrs	r1, r3
 8000ba2:	61c1      	str	r1, [r0, #28]
 8000ba4:	e7f2      	b.n	8000b8c <HAL_NVIC_SetPriority+0x30>
 8000ba6:	46c0      	nop			@ (mov r8, r8)
 8000ba8:	e000e100 	.word	0xe000e100
 8000bac:	e000ed00 	.word	0xe000ed00

08000bb0 <HAL_NVIC_EnableIRQ>:
 8000bb0:	2800      	cmp	r0, #0
 8000bb2:	db05      	blt.n	8000bc0 <HAL_NVIC_EnableIRQ+0x10>
 8000bb4:	231f      	movs	r3, #31
 8000bb6:	4018      	ands	r0, r3
 8000bb8:	3b1e      	subs	r3, #30
 8000bba:	4083      	lsls	r3, r0
 8000bbc:	4a01      	ldr	r2, [pc, #4]	@ (8000bc4 <HAL_NVIC_EnableIRQ+0x14>)
 8000bbe:	6013      	str	r3, [r2, #0]
 8000bc0:	4770      	bx	lr
 8000bc2:	46c0      	nop			@ (mov r8, r8)
 8000bc4:	e000e100 	.word	0xe000e100

08000bc8 <HAL_SYSTICK_Config>:
 8000bc8:	2280      	movs	r2, #128	@ 0x80
 8000bca:	1e43      	subs	r3, r0, #1
 8000bcc:	0452      	lsls	r2, r2, #17
 8000bce:	2001      	movs	r0, #1
 8000bd0:	4293      	cmp	r3, r2
 8000bd2:	d20d      	bcs.n	8000bf0 <HAL_SYSTICK_Config+0x28>
 8000bd4:	21c0      	movs	r1, #192	@ 0xc0
 8000bd6:	4a07      	ldr	r2, [pc, #28]	@ (8000bf4 <HAL_SYSTICK_Config+0x2c>)
 8000bd8:	4807      	ldr	r0, [pc, #28]	@ (8000bf8 <HAL_SYSTICK_Config+0x30>)
 8000bda:	6053      	str	r3, [r2, #4]
 8000bdc:	6a03      	ldr	r3, [r0, #32]
 8000bde:	0609      	lsls	r1, r1, #24
 8000be0:	021b      	lsls	r3, r3, #8
 8000be2:	0a1b      	lsrs	r3, r3, #8
 8000be4:	430b      	orrs	r3, r1
 8000be6:	6203      	str	r3, [r0, #32]
 8000be8:	2000      	movs	r0, #0
 8000bea:	2307      	movs	r3, #7
 8000bec:	6090      	str	r0, [r2, #8]
 8000bee:	6013      	str	r3, [r2, #0]
 8000bf0:	4770      	bx	lr
 8000bf2:	46c0      	nop			@ (mov r8, r8)
 8000bf4:	e000e010 	.word	0xe000e010
 8000bf8:	e000ed00 	.word	0xe000ed00

08000bfc <HAL_DMA_Init>:
 8000bfc:	b5f8      	push	{r3, r4, r5, r6, r7, lr}
 8000bfe:	0004      	movs	r4, r0
 8000c00:	2001      	movs	r0, #1
 8000c02:	2c00      	cmp	r4, #0
 8000c04:	d035      	beq.n	8000c72 <HAL_DMA_Init+0x76>
 8000c06:	6825      	ldr	r5, [r4, #0]
 8000c08:	4b1a      	ldr	r3, [pc, #104]	@ (8000c74 <HAL_DMA_Init+0x78>)
 8000c0a:	2114      	movs	r1, #20
 8000c0c:	18e8      	adds	r0, r5, r3
 8000c0e:	f7ff fa85 	bl	800011c <__udivsi3>
 8000c12:	4b19      	ldr	r3, [pc, #100]	@ (8000c78 <HAL_DMA_Init+0x7c>)
 8000c14:	0080      	lsls	r0, r0, #2
 8000c16:	6423      	str	r3, [r4, #64]	@ 0x40
 8000c18:	2302      	movs	r3, #2
 8000c1a:	1da2      	adds	r2, r4, #6
 8000c1c:	6460      	str	r0, [r4, #68]	@ 0x44
 8000c1e:	77d3      	strb	r3, [r2, #31]
 8000c20:	682e      	ldr	r6, [r5, #0]
 8000c22:	4b16      	ldr	r3, [pc, #88]	@ (8000c7c <HAL_DMA_Init+0x80>)
 8000c24:	68a1      	ldr	r1, [r4, #8]
 8000c26:	401e      	ands	r6, r3
 8000c28:	68e3      	ldr	r3, [r4, #12]
 8000c2a:	6927      	ldr	r7, [r4, #16]
 8000c2c:	430b      	orrs	r3, r1
 8000c2e:	433b      	orrs	r3, r7
 8000c30:	6967      	ldr	r7, [r4, #20]
 8000c32:	433b      	orrs	r3, r7
 8000c34:	69a7      	ldr	r7, [r4, #24]
 8000c36:	433b      	orrs	r3, r7
 8000c38:	69e7      	ldr	r7, [r4, #28]
 8000c3a:	433b      	orrs	r3, r7
 8000c3c:	6a27      	ldr	r7, [r4, #32]
 8000c3e:	433b      	orrs	r3, r7
 8000c40:	4333      	orrs	r3, r6
 8000c42:	602b      	str	r3, [r5, #0]
 8000c44:	2380      	movs	r3, #128	@ 0x80
 8000c46:	01db      	lsls	r3, r3, #7
 8000c48:	4299      	cmp	r1, r3
 8000c4a:	d00c      	beq.n	8000c66 <HAL_DMA_Init+0x6a>
 8000c4c:	251c      	movs	r5, #28
 8000c4e:	4028      	ands	r0, r5
 8000c50:	3d0d      	subs	r5, #13
 8000c52:	4085      	lsls	r5, r0
 8000c54:	490a      	ldr	r1, [pc, #40]	@ (8000c80 <HAL_DMA_Init+0x84>)
 8000c56:	680b      	ldr	r3, [r1, #0]
 8000c58:	43ab      	bics	r3, r5
 8000c5a:	600b      	str	r3, [r1, #0]
 8000c5c:	6863      	ldr	r3, [r4, #4]
 8000c5e:	680d      	ldr	r5, [r1, #0]
 8000c60:	4083      	lsls	r3, r0
 8000c62:	432b      	orrs	r3, r5
 8000c64:	600b      	str	r3, [r1, #0]
 8000c66:	2000      	movs	r0, #0
 8000c68:	2301      	movs	r3, #1
 8000c6a:	63e0      	str	r0, [r4, #60]	@ 0x3c
 8000c6c:	3405      	adds	r4, #5
 8000c6e:	77d3      	strb	r3, [r2, #31]
 8000c70:	77e0      	strb	r0, [r4, #31]
 8000c72:	bdf8      	pop	{r3, r4, r5, r6, r7, pc}
 8000c74:	bffdfff8 	.word	0xbffdfff8
 8000c78:	40020000 	.word	0x40020000
 8000c7c:	ffff800f 	.word	0xffff800f
 8000c80:	400200a8 	.word	0x400200a8

08000c84 <HAL_DMA_Start_IT>:
 8000c84:	b5f7      	push	{r0, r1, r2, r4, r5, r6, r7, lr}
 8000c86:	1d44      	adds	r4, r0, #5
 8000c88:	9301      	str	r3, [sp, #4]
 8000c8a:	7fe5      	ldrb	r5, [r4, #31]
 8000c8c:	2d01      	cmp	r5, #1
 8000c8e:	d035      	beq.n	8000cfc <HAL_DMA_Start_IT+0x78>
 8000c90:	2501      	movs	r5, #1
 8000c92:	1d87      	adds	r7, r0, #6
 8000c94:	77e5      	strb	r5, [r4, #31]
 8000c96:	7ffd      	ldrb	r5, [r7, #31]
 8000c98:	2600      	movs	r6, #0
 8000c9a:	46ac      	mov	ip, r5
 8000c9c:	4663      	mov	r3, ip
 8000c9e:	b2ed      	uxtb	r5, r5
 8000ca0:	2b01      	cmp	r3, #1
 8000ca2:	d12a      	bne.n	8000cfa <HAL_DMA_Start_IT+0x76>
 8000ca4:	2402      	movs	r4, #2
 8000ca6:	77fc      	strb	r4, [r7, #31]
 8000ca8:	6804      	ldr	r4, [r0, #0]
 8000caa:	63c6      	str	r6, [r0, #60]	@ 0x3c
 8000cac:	6826      	ldr	r6, [r4, #0]
 8000cae:	331b      	adds	r3, #27
 8000cb0:	43ae      	bics	r6, r5
 8000cb2:	6026      	str	r6, [r4, #0]
 8000cb4:	6c46      	ldr	r6, [r0, #68]	@ 0x44
 8000cb6:	6c07      	ldr	r7, [r0, #64]	@ 0x40
 8000cb8:	401e      	ands	r6, r3
 8000cba:	40b5      	lsls	r5, r6
 8000cbc:	9b01      	ldr	r3, [sp, #4]
 8000cbe:	607d      	str	r5, [r7, #4]
 8000cc0:	6063      	str	r3, [r4, #4]
 8000cc2:	6883      	ldr	r3, [r0, #8]
 8000cc4:	2b10      	cmp	r3, #16
 8000cc6:	d10e      	bne.n	8000ce6 <HAL_DMA_Start_IT+0x62>
 8000cc8:	60a2      	str	r2, [r4, #8]
 8000cca:	60e1      	str	r1, [r4, #12]
 8000ccc:	6b03      	ldr	r3, [r0, #48]	@ 0x30
 8000cce:	2b00      	cmp	r3, #0
 8000cd0:	d00c      	beq.n	8000cec <HAL_DMA_Start_IT+0x68>
 8000cd2:	230e      	movs	r3, #14
 8000cd4:	6822      	ldr	r2, [r4, #0]
 8000cd6:	4313      	orrs	r3, r2
 8000cd8:	6023      	str	r3, [r4, #0]
 8000cda:	2301      	movs	r3, #1
 8000cdc:	2000      	movs	r0, #0
 8000cde:	6822      	ldr	r2, [r4, #0]
 8000ce0:	4313      	orrs	r3, r2
 8000ce2:	6023      	str	r3, [r4, #0]
 8000ce4:	bdfe      	pop	{r1, r2, r3, r4, r5, r6, r7, pc}
 8000ce6:	60a1      	str	r1, [r4, #8]
 8000ce8:	60e2      	str	r2, [r4, #12]
 8000cea:	e7ef      	b.n	8000ccc <HAL_DMA_Start_IT+0x48>
 8000cec:	2204      	movs	r2, #4
 8000cee:	6823      	ldr	r3, [r4, #0]
 8000cf0:	4393      	bics	r3, r2
 8000cf2:	6023      	str	r3, [r4, #0]
 8000cf4:	6822      	ldr	r2, [r4, #0]
 8000cf6:	230a      	movs	r3, #10
 8000cf8:	e7ed      	b.n	8000cd6 <HAL_DMA_Start_IT+0x52>
 8000cfa:	77e6      	strb	r6, [r4, #31]
 8000cfc:	2002      	movs	r0, #2
 8000cfe:	e7f1      	b.n	8000ce4 <HAL_DMA_Start_IT+0x60>

08000d00 <HAL_DMA_Abort>:
 8000d00:	b530      	push	{r4, r5, lr}
 8000d02:	1d84      	adds	r4, r0, #6
 8000d04:	7fe2      	ldrb	r2, [r4, #31]
 8000d06:	0003      	movs	r3, r0
 8000d08:	2a02      	cmp	r2, #2
 8000d0a:	d006      	beq.n	8000d1a <HAL_DMA_Abort+0x1a>
 8000d0c:	2204      	movs	r2, #4
 8000d0e:	63c2      	str	r2, [r0, #60]	@ 0x3c
 8000d10:	2001      	movs	r0, #1
 8000d12:	2200      	movs	r2, #0
 8000d14:	3305      	adds	r3, #5
 8000d16:	77da      	strb	r2, [r3, #31]
 8000d18:	bd30      	pop	{r4, r5, pc}
 8000d1a:	6802      	ldr	r2, [r0, #0]
 8000d1c:	200e      	movs	r0, #14
 8000d1e:	6811      	ldr	r1, [r2, #0]
 8000d20:	251c      	movs	r5, #28
 8000d22:	4381      	bics	r1, r0
 8000d24:	6011      	str	r1, [r2, #0]
 8000d26:	2101      	movs	r1, #1
 8000d28:	6810      	ldr	r0, [r2, #0]
 8000d2a:	4388      	bics	r0, r1
 8000d2c:	6010      	str	r0, [r2, #0]
 8000d2e:	6c5a      	ldr	r2, [r3, #68]	@ 0x44
 8000d30:	6c18      	ldr	r0, [r3, #64]	@ 0x40
 8000d32:	402a      	ands	r2, r5
 8000d34:	000d      	movs	r5, r1
 8000d36:	4095      	lsls	r5, r2
 8000d38:	6045      	str	r5, [r0, #4]
 8000d3a:	2000      	movs	r0, #0
 8000d3c:	77e1      	strb	r1, [r4, #31]
 8000d3e:	e7e8      	b.n	8000d12 <HAL_DMA_Abort+0x12>

08000d40 <HAL_DMA_Abort_IT>:
 8000d40:	b570      	push	{r4, r5, r6, lr}
 8000d42:	1d84      	adds	r4, r0, #6
 8000d44:	7fe3      	ldrb	r3, [r4, #31]
 8000d46:	2b02      	cmp	r3, #2
 8000d48:	d003      	beq.n	8000d52 <HAL_DMA_Abort_IT+0x12>
 8000d4a:	2304      	movs	r3, #4
 8000d4c:	63c3      	str	r3, [r0, #60]	@ 0x3c
 8000d4e:	2001      	movs	r0, #1
 8000d50:	bd70      	pop	{r4, r5, r6, pc}
 8000d52:	210e      	movs	r1, #14
 8000d54:	6803      	ldr	r3, [r0, #0]
 8000d56:	251c      	movs	r5, #28
 8000d58:	681a      	ldr	r2, [r3, #0]
 8000d5a:	438a      	bics	r2, r1
 8000d5c:	601a      	str	r2, [r3, #0]
 8000d5e:	2201      	movs	r2, #1
 8000d60:	6819      	ldr	r1, [r3, #0]
 8000d62:	4391      	bics	r1, r2
 8000d64:	6019      	str	r1, [r3, #0]
 8000d66:	6c43      	ldr	r3, [r0, #68]	@ 0x44
 8000d68:	6c01      	ldr	r1, [r0, #64]	@ 0x40
 8000d6a:	402b      	ands	r3, r5
 8000d6c:	0015      	movs	r5, r2
 8000d6e:	409d      	lsls	r5, r3
 8000d70:	604d      	str	r5, [r1, #4]
 8000d72:	77e2      	strb	r2, [r4, #31]
 8000d74:	2200      	movs	r2, #0
 8000d76:	1d43      	adds	r3, r0, #5
 8000d78:	77da      	strb	r2, [r3, #31]
 8000d7a:	6b83      	ldr	r3, [r0, #56]	@ 0x38
 8000d7c:	4293      	cmp	r3, r2
 8000d7e:	d000      	beq.n	8000d82 <HAL_DMA_Abort_IT+0x42>
 8000d80:	4798      	blx	r3
 8000d82:	2000      	movs	r0, #0
 8000d84:	e7e4      	b.n	8000d50 <HAL_DMA_Abort_IT+0x10>

08000d86 <HAL_DMA_IRQHandler>:
 8000d86:	b5f8      	push	{r3, r4, r5, r6, r7, lr}
 8000d88:	261c      	movs	r6, #28
 8000d8a:	2704      	movs	r7, #4
 8000d8c:	6c42      	ldr	r2, [r0, #68]	@ 0x44
 8000d8e:	6c01      	ldr	r1, [r0, #64]	@ 0x40
 8000d90:	4032      	ands	r2, r6
 8000d92:	003e      	movs	r6, r7
 8000d94:	4096      	lsls	r6, r2
 8000d96:	680d      	ldr	r5, [r1, #0]
 8000d98:	6803      	ldr	r3, [r0, #0]
 8000d9a:	681c      	ldr	r4, [r3, #0]
 8000d9c:	4235      	tst	r5, r6
 8000d9e:	d00d      	beq.n	8000dbc <HAL_DMA_IRQHandler+0x36>
 8000da0:	423c      	tst	r4, r7
 8000da2:	d00b      	beq.n	8000dbc <HAL_DMA_IRQHandler+0x36>
 8000da4:	681a      	ldr	r2, [r3, #0]
 8000da6:	0692      	lsls	r2, r2, #26
 8000da8:	d402      	bmi.n	8000db0 <HAL_DMA_IRQHandler+0x2a>
 8000daa:	681a      	ldr	r2, [r3, #0]
 8000dac:	43ba      	bics	r2, r7
 8000dae:	601a      	str	r2, [r3, #0]
 8000db0:	6b03      	ldr	r3, [r0, #48]	@ 0x30
 8000db2:	604e      	str	r6, [r1, #4]
 8000db4:	2b00      	cmp	r3, #0
 8000db6:	d019      	beq.n	8000dec <HAL_DMA_IRQHandler+0x66>
 8000db8:	4798      	blx	r3
 8000dba:	e017      	b.n	8000dec <HAL_DMA_IRQHandler+0x66>
 8000dbc:	2702      	movs	r7, #2
 8000dbe:	003e      	movs	r6, r7
 8000dc0:	4096      	lsls	r6, r2
 8000dc2:	4235      	tst	r5, r6
 8000dc4:	d013      	beq.n	8000dee <HAL_DMA_IRQHandler+0x68>
 8000dc6:	423c      	tst	r4, r7
 8000dc8:	d011      	beq.n	8000dee <HAL_DMA_IRQHandler+0x68>
 8000dca:	681a      	ldr	r2, [r3, #0]
 8000dcc:	0692      	lsls	r2, r2, #26
 8000dce:	d406      	bmi.n	8000dde <HAL_DMA_IRQHandler+0x58>
 8000dd0:	240a      	movs	r4, #10
 8000dd2:	681a      	ldr	r2, [r3, #0]
 8000dd4:	43a2      	bics	r2, r4
 8000dd6:	601a      	str	r2, [r3, #0]
 8000dd8:	2201      	movs	r2, #1
 8000dda:	1d83      	adds	r3, r0, #6
 8000ddc:	77da      	strb	r2, [r3, #31]
 8000dde:	2200      	movs	r2, #0
 8000de0:	1d43      	adds	r3, r0, #5
 8000de2:	604e      	str	r6, [r1, #4]
 8000de4:	77da      	strb	r2, [r3, #31]
 8000de6:	6ac3      	ldr	r3, [r0, #44]	@ 0x2c
 8000de8:	4293      	cmp	r3, r2
 8000dea:	d1e5      	bne.n	8000db8 <HAL_DMA_IRQHandler+0x32>
 8000dec:	bdf8      	pop	{r3, r4, r5, r6, r7, pc}
 8000dee:	2608      	movs	r6, #8
 8000df0:	0037      	movs	r7, r6
 8000df2:	4097      	lsls	r7, r2
 8000df4:	423d      	tst	r5, r7
 8000df6:	d0f9      	beq.n	8000dec <HAL_DMA_IRQHandler+0x66>
 8000df8:	4234      	tst	r4, r6
 8000dfa:	d0f7      	beq.n	8000dec <HAL_DMA_IRQHandler+0x66>
 8000dfc:	250e      	movs	r5, #14
 8000dfe:	681c      	ldr	r4, [r3, #0]
 8000e00:	43ac      	bics	r4, r5
 8000e02:	601c      	str	r4, [r3, #0]
 8000e04:	2301      	movs	r3, #1
 8000e06:	001c      	movs	r4, r3
 8000e08:	4094      	lsls	r4, r2
 8000e0a:	1d82      	adds	r2, r0, #6
 8000e0c:	604c      	str	r4, [r1, #4]
 8000e0e:	63c3      	str	r3, [r0, #60]	@ 0x3c
 8000e10:	77d3      	strb	r3, [r2, #31]
 8000e12:	2200      	movs	r2, #0
 8000e14:	1d43      	adds	r3, r0, #5
 8000e16:	77da      	strb	r2, [r3, #31]
 8000e18:	6b43      	ldr	r3, [r0, #52]	@ 0x34
 8000e1a:	e7e5      	b.n	8000de8 <HAL_DMA_IRQHandler+0x62>

08000e1c <HAL_GPIO_Init>:
 8000e1c:	2300      	movs	r3, #0
 8000e1e:	b5f0      	push	{r4, r5, r6, r7, lr}
 8000e20:	b085      	sub	sp, #20
 8000e22:	680a      	ldr	r2, [r1, #0]
 8000e24:	0014      	movs	r4, r2
 8000e26:	40dc      	lsrs	r4, r3
 8000e28:	d101      	bne.n	8000e2e <HAL_GPIO_Init+0x12>
 8000e2a:	b005      	add	sp, #20
 8000e2c:	bdf0      	pop	{r4, r5, r6, r7, pc}
 8000e2e:	2501      	movs	r5, #1
 8000e30:	0014      	movs	r4, r2
 8000e32:	409d      	lsls	r5, r3
 8000e34:	402c      	ands	r4, r5
 8000e36:	9400      	str	r4, [sp, #0]
 8000e38:	422a      	tst	r2, r5
 8000e3a:	d100      	bne.n	8000e3e <HAL_GPIO_Init+0x22>
 8000e3c:	e094      	b.n	8000f68 <HAL_GPIO_Init+0x14c>
 8000e3e:	684a      	ldr	r2, [r1, #4]
 8000e40:	005f      	lsls	r7, r3, #1
 8000e42:	4694      	mov	ip, r2
 8000e44:	2203      	movs	r2, #3
 8000e46:	4664      	mov	r4, ip
 8000e48:	4022      	ands	r2, r4
 8000e4a:	2403      	movs	r4, #3
 8000e4c:	40bc      	lsls	r4, r7
 8000e4e:	43e4      	mvns	r4, r4
 8000e50:	9401      	str	r4, [sp, #4]
 8000e52:	1e54      	subs	r4, r2, #1
 8000e54:	2c01      	cmp	r4, #1
 8000e56:	d82e      	bhi.n	8000eb6 <HAL_GPIO_Init+0x9a>
 8000e58:	6886      	ldr	r6, [r0, #8]
 8000e5a:	9c01      	ldr	r4, [sp, #4]
 8000e5c:	4026      	ands	r6, r4
 8000e5e:	68cc      	ldr	r4, [r1, #12]
 8000e60:	40bc      	lsls	r4, r7
 8000e62:	4334      	orrs	r4, r6
 8000e64:	6084      	str	r4, [r0, #8]
 8000e66:	6844      	ldr	r4, [r0, #4]
 8000e68:	2601      	movs	r6, #1
 8000e6a:	43ac      	bics	r4, r5
 8000e6c:	0025      	movs	r5, r4
 8000e6e:	4664      	mov	r4, ip
 8000e70:	0924      	lsrs	r4, r4, #4
 8000e72:	4034      	ands	r4, r6
 8000e74:	409c      	lsls	r4, r3
 8000e76:	432c      	orrs	r4, r5
 8000e78:	6044      	str	r4, [r0, #4]
 8000e7a:	68c5      	ldr	r5, [r0, #12]
 8000e7c:	9c01      	ldr	r4, [sp, #4]
 8000e7e:	4025      	ands	r5, r4
 8000e80:	688c      	ldr	r4, [r1, #8]
 8000e82:	40bc      	lsls	r4, r7
 8000e84:	432c      	orrs	r4, r5
 8000e86:	60c4      	str	r4, [r0, #12]
 8000e88:	2a02      	cmp	r2, #2
 8000e8a:	d116      	bne.n	8000eba <HAL_GPIO_Init+0x9e>
 8000e8c:	2507      	movs	r5, #7
 8000e8e:	260f      	movs	r6, #15
 8000e90:	401d      	ands	r5, r3
 8000e92:	00ad      	lsls	r5, r5, #2
 8000e94:	40ae      	lsls	r6, r5
 8000e96:	08dc      	lsrs	r4, r3, #3
 8000e98:	00a4      	lsls	r4, r4, #2
 8000e9a:	1904      	adds	r4, r0, r4
 8000e9c:	9402      	str	r4, [sp, #8]
 8000e9e:	6a24      	ldr	r4, [r4, #32]
 8000ea0:	9603      	str	r6, [sp, #12]
 8000ea2:	0026      	movs	r6, r4
 8000ea4:	9c03      	ldr	r4, [sp, #12]
 8000ea6:	43a6      	bics	r6, r4
 8000ea8:	0034      	movs	r4, r6
 8000eaa:	690e      	ldr	r6, [r1, #16]
 8000eac:	40ae      	lsls	r6, r5
 8000eae:	4326      	orrs	r6, r4
 8000eb0:	9c02      	ldr	r4, [sp, #8]
 8000eb2:	6226      	str	r6, [r4, #32]
 8000eb4:	e001      	b.n	8000eba <HAL_GPIO_Init+0x9e>
 8000eb6:	2a03      	cmp	r2, #3
 8000eb8:	d1df      	bne.n	8000e7a <HAL_GPIO_Init+0x5e>
 8000eba:	40ba      	lsls	r2, r7
 8000ebc:	6804      	ldr	r4, [r0, #0]
 8000ebe:	9d01      	ldr	r5, [sp, #4]
 8000ec0:	4025      	ands	r5, r4
 8000ec2:	432a      	orrs	r2, r5
 8000ec4:	24c0      	movs	r4, #192	@ 0xc0
 8000ec6:	6002      	str	r2, [r0, #0]
 8000ec8:	4662      	mov	r2, ip
 8000eca:	02a4      	lsls	r4, r4, #10
 8000ecc:	4222      	tst	r2, r4
 8000ece:	d04b      	beq.n	8000f68 <HAL_GPIO_Init+0x14c>
 8000ed0:	2501      	movs	r5, #1
 8000ed2:	4c26      	ldr	r4, [pc, #152]	@ (8000f6c <HAL_GPIO_Init+0x150>)
 8000ed4:	27a0      	movs	r7, #160	@ 0xa0
 8000ed6:	6b62      	ldr	r2, [r4, #52]	@ 0x34
 8000ed8:	05ff      	lsls	r7, r7, #23
 8000eda:	432a      	orrs	r2, r5
 8000edc:	6362      	str	r2, [r4, #52]	@ 0x34
 8000ede:	4a24      	ldr	r2, [pc, #144]	@ (8000f70 <HAL_GPIO_Init+0x154>)
 8000ee0:	089c      	lsrs	r4, r3, #2
 8000ee2:	00a4      	lsls	r4, r4, #2
 8000ee4:	18a4      	adds	r4, r4, r2
 8000ee6:	220f      	movs	r2, #15
 8000ee8:	3502      	adds	r5, #2
 8000eea:	401d      	ands	r5, r3
 8000eec:	00ad      	lsls	r5, r5, #2
 8000eee:	40aa      	lsls	r2, r5
 8000ef0:	68a6      	ldr	r6, [r4, #8]
 8000ef2:	4396      	bics	r6, r2
 8000ef4:	2200      	movs	r2, #0
 8000ef6:	42b8      	cmp	r0, r7
 8000ef8:	d00c      	beq.n	8000f14 <HAL_GPIO_Init+0xf8>
 8000efa:	4f1e      	ldr	r7, [pc, #120]	@ (8000f74 <HAL_GPIO_Init+0x158>)
 8000efc:	3201      	adds	r2, #1
 8000efe:	42b8      	cmp	r0, r7
 8000f00:	d008      	beq.n	8000f14 <HAL_GPIO_Init+0xf8>
 8000f02:	4f1d      	ldr	r7, [pc, #116]	@ (8000f78 <HAL_GPIO_Init+0x15c>)
 8000f04:	3201      	adds	r2, #1
 8000f06:	42b8      	cmp	r0, r7
 8000f08:	d004      	beq.n	8000f14 <HAL_GPIO_Init+0xf8>
 8000f0a:	4a1c      	ldr	r2, [pc, #112]	@ (8000f7c <HAL_GPIO_Init+0x160>)
 8000f0c:	1882      	adds	r2, r0, r2
 8000f0e:	1e57      	subs	r7, r2, #1
 8000f10:	41ba      	sbcs	r2, r7
 8000f12:	3205      	adds	r2, #5
 8000f14:	40aa      	lsls	r2, r5
 8000f16:	4667      	mov	r7, ip
 8000f18:	4332      	orrs	r2, r6
 8000f1a:	60a2      	str	r2, [r4, #8]
 8000f1c:	4a18      	ldr	r2, [pc, #96]	@ (8000f80 <HAL_GPIO_Init+0x164>)
 8000f1e:	9c00      	ldr	r4, [sp, #0]
 8000f20:	6896      	ldr	r6, [r2, #8]
 8000f22:	9d00      	ldr	r5, [sp, #0]
 8000f24:	43e4      	mvns	r4, r4
 8000f26:	4335      	orrs	r5, r6
 8000f28:	02ff      	lsls	r7, r7, #11
 8000f2a:	d401      	bmi.n	8000f30 <HAL_GPIO_Init+0x114>
 8000f2c:	0035      	movs	r5, r6
 8000f2e:	4025      	ands	r5, r4
 8000f30:	4667      	mov	r7, ip
 8000f32:	6095      	str	r5, [r2, #8]
 8000f34:	68d6      	ldr	r6, [r2, #12]
 8000f36:	9d00      	ldr	r5, [sp, #0]
 8000f38:	4335      	orrs	r5, r6
 8000f3a:	02bf      	lsls	r7, r7, #10
 8000f3c:	d401      	bmi.n	8000f42 <HAL_GPIO_Init+0x126>
 8000f3e:	0035      	movs	r5, r6
 8000f40:	4025      	ands	r5, r4
 8000f42:	4667      	mov	r7, ip
 8000f44:	60d5      	str	r5, [r2, #12]
 8000f46:	6856      	ldr	r6, [r2, #4]
 8000f48:	9d00      	ldr	r5, [sp, #0]
 8000f4a:	4335      	orrs	r5, r6
 8000f4c:	03bf      	lsls	r7, r7, #14
 8000f4e:	d401      	bmi.n	8000f54 <HAL_GPIO_Init+0x138>
 8000f50:	0035      	movs	r5, r6
 8000f52:	4025      	ands	r5, r4
 8000f54:	4667      	mov	r7, ip
 8000f56:	6055      	str	r5, [r2, #4]
 8000f58:	6815      	ldr	r5, [r2, #0]
 8000f5a:	9e00      	ldr	r6, [sp, #0]
 8000f5c:	432e      	orrs	r6, r5
 8000f5e:	03ff      	lsls	r7, r7, #15
 8000f60:	d401      	bmi.n	8000f66 <HAL_GPIO_Init+0x14a>
 8000f62:	4025      	ands	r5, r4
 8000f64:	002e      	movs	r6, r5
 8000f66:	6016      	str	r6, [r2, #0]
 8000f68:	3301      	adds	r3, #1
 8000f6a:	e75a      	b.n	8000e22 <HAL_GPIO_Init+0x6>
 8000f6c:	40021000 	.word	0x40021000
 8000f70:	40010000 	.word	0x40010000
 8000f74:	50000400 	.word	0x50000400
 8000f78:	50000800 	.word	0x50000800
 8000f7c:	afffe400 	.word	0xafffe400
 8000f80:	40010400 	.word	0x40010400

08000f84 <HAL_GPIO_WritePin>:
 8000f84:	2a00      	cmp	r2, #0
 8000f86:	d001      	beq.n	8000f8c <HAL_GPIO_WritePin+0x8>
 8000f88:	6181      	str	r1, [r0, #24]
 8000f8a:	4770      	bx	lr
 8000f8c:	6281      	str	r1, [r0, #40]	@ 0x28
 8000f8e:	e7fc      	b.n	8000f8a <HAL_GPIO_WritePin+0x6>

08000f90 <HAL_I2C_Init>:
 8000f90:	b570      	push	{r4, r5, r6, lr}
 8000f92:	0004      	movs	r4, r0
 8000f94:	2001      	movs	r0, #1
 8000f96:	2c00      	cmp	r4, #0
 8000f98:	d04e      	beq.n	8001038 <HAL_I2C_Init+0xa8>
 8000f9a:	0025      	movs	r5, r4
 8000f9c:	3541      	adds	r5, #65	@ 0x41
 8000f9e:	782b      	ldrb	r3, [r5, #0]
 8000fa0:	b2da      	uxtb	r2, r3
 8000fa2:	2b00      	cmp	r3, #0
 8000fa4:	d105      	bne.n	8000fb2 <HAL_I2C_Init+0x22>
 8000fa6:	0023      	movs	r3, r4
 8000fa8:	3340      	adds	r3, #64	@ 0x40
 8000faa:	0020      	movs	r0, r4
 8000fac:	701a      	strb	r2, [r3, #0]
 8000fae:	f7ff fc8b 	bl	80008c8 <HAL_I2C_MspInit>
 8000fb2:	2324      	movs	r3, #36	@ 0x24
 8000fb4:	2101      	movs	r1, #1
 8000fb6:	702b      	strb	r3, [r5, #0]
 8000fb8:	6823      	ldr	r3, [r4, #0]
 8000fba:	68e0      	ldr	r0, [r4, #12]
 8000fbc:	681a      	ldr	r2, [r3, #0]
 8000fbe:	68a6      	ldr	r6, [r4, #8]
 8000fc0:	438a      	bics	r2, r1
 8000fc2:	601a      	str	r2, [r3, #0]
 8000fc4:	491d      	ldr	r1, [pc, #116]	@ (800103c <HAL_I2C_Init+0xac>)
 8000fc6:	6862      	ldr	r2, [r4, #4]
 8000fc8:	400a      	ands	r2, r1
 8000fca:	611a      	str	r2, [r3, #16]
 8000fcc:	689a      	ldr	r2, [r3, #8]
 8000fce:	491c      	ldr	r1, [pc, #112]	@ (8001040 <HAL_I2C_Init+0xb0>)
 8000fd0:	400a      	ands	r2, r1
 8000fd2:	609a      	str	r2, [r3, #8]
 8000fd4:	2801      	cmp	r0, #1
 8000fd6:	d107      	bne.n	8000fe8 <HAL_I2C_Init+0x58>
 8000fd8:	2280      	movs	r2, #128	@ 0x80
 8000fda:	0212      	lsls	r2, r2, #8
 8000fdc:	4332      	orrs	r2, r6
 8000fde:	609a      	str	r2, [r3, #8]
 8000fe0:	685a      	ldr	r2, [r3, #4]
 8000fe2:	4818      	ldr	r0, [pc, #96]	@ (8001044 <HAL_I2C_Init+0xb4>)
 8000fe4:	4002      	ands	r2, r0
 8000fe6:	e009      	b.n	8000ffc <HAL_I2C_Init+0x6c>
 8000fe8:	2284      	movs	r2, #132	@ 0x84
 8000fea:	0212      	lsls	r2, r2, #8
 8000fec:	4332      	orrs	r2, r6
 8000fee:	609a      	str	r2, [r3, #8]
 8000ff0:	2802      	cmp	r0, #2
 8000ff2:	d1f5      	bne.n	8000fe0 <HAL_I2C_Init+0x50>
 8000ff4:	2280      	movs	r2, #128	@ 0x80
 8000ff6:	6858      	ldr	r0, [r3, #4]
 8000ff8:	0112      	lsls	r2, r2, #4
 8000ffa:	4302      	orrs	r2, r0
 8000ffc:	605a      	str	r2, [r3, #4]
 8000ffe:	6858      	ldr	r0, [r3, #4]
 8001000:	4a11      	ldr	r2, [pc, #68]	@ (8001048 <HAL_I2C_Init+0xb8>)
 8001002:	4302      	orrs	r2, r0
 8001004:	605a      	str	r2, [r3, #4]
 8001006:	68da      	ldr	r2, [r3, #12]
 8001008:	2000      	movs	r0, #0
 800100a:	400a      	ands	r2, r1
 800100c:	60da      	str	r2, [r3, #12]
 800100e:	6961      	ldr	r1, [r4, #20]
 8001010:	6922      	ldr	r2, [r4, #16]
 8001012:	430a      	orrs	r2, r1
 8001014:	69a1      	ldr	r1, [r4, #24]
 8001016:	0209      	lsls	r1, r1, #8
 8001018:	430a      	orrs	r2, r1
 800101a:	60da      	str	r2, [r3, #12]
 800101c:	6a21      	ldr	r1, [r4, #32]
 800101e:	69e2      	ldr	r2, [r4, #28]
 8001020:	430a      	orrs	r2, r1
 8001022:	601a      	str	r2, [r3, #0]
 8001024:	2201      	movs	r2, #1
 8001026:	6819      	ldr	r1, [r3, #0]
 8001028:	430a      	orrs	r2, r1
 800102a:	601a      	str	r2, [r3, #0]
 800102c:	2320      	movs	r3, #32
 800102e:	6460      	str	r0, [r4, #68]	@ 0x44
 8001030:	702b      	strb	r3, [r5, #0]
 8001032:	6320      	str	r0, [r4, #48]	@ 0x30
 8001034:	3442      	adds	r4, #66	@ 0x42
 8001036:	7020      	strb	r0, [r4, #0]
 8001038:	bd70      	pop	{r4, r5, r6, pc}
 800103a:	46c0      	nop			@ (mov r8, r8)
 800103c:	f0ffffff 	.word	0xf0ffffff
 8001040:	ffff7fff 	.word	0xffff7fff
 8001044:	fffff7ff 	.word	0xfffff7ff
 8001048:	02008000 	.word	0x02008000

0800104c <HAL_I2CEx_ConfigAnalogFilter>:
 800104c:	b5f0      	push	{r4, r5, r6, r7, lr}
 800104e:	0004      	movs	r4, r0
 8001050:	3441      	adds	r4, #65	@ 0x41
 8001052:	7822      	ldrb	r2, [r4, #0]
 8001054:	0003      	movs	r3, r0
 8001056:	000f      	movs	r7, r1
 8001058:	2002      	movs	r0, #2
 800105a:	b2d6      	uxtb	r6, r2
 800105c:	2a20      	cmp	r2, #32
 800105e:	d118      	bne.n	8001092 <HAL_I2CEx_ConfigAnalogFilter+0x46>
 8001060:	001d      	movs	r5, r3
 8001062:	3540      	adds	r5, #64	@ 0x40
 8001064:	782a      	ldrb	r2, [r5, #0]
 8001066:	2a01      	cmp	r2, #1
 8001068:	d013      	beq.n	8001092 <HAL_I2CEx_ConfigAnalogFilter+0x46>
 800106a:	2224      	movs	r2, #36	@ 0x24
 800106c:	7022      	strb	r2, [r4, #0]
 800106e:	681b      	ldr	r3, [r3, #0]
 8001070:	3a23      	subs	r2, #35	@ 0x23
 8001072:	6819      	ldr	r1, [r3, #0]
 8001074:	4807      	ldr	r0, [pc, #28]	@ (8001094 <HAL_I2CEx_ConfigAnalogFilter+0x48>)
 8001076:	4391      	bics	r1, r2
 8001078:	6019      	str	r1, [r3, #0]
 800107a:	6819      	ldr	r1, [r3, #0]
 800107c:	4001      	ands	r1, r0
 800107e:	2000      	movs	r0, #0
 8001080:	6019      	str	r1, [r3, #0]
 8001082:	6819      	ldr	r1, [r3, #0]
 8001084:	4339      	orrs	r1, r7
 8001086:	6019      	str	r1, [r3, #0]
 8001088:	6819      	ldr	r1, [r3, #0]
 800108a:	430a      	orrs	r2, r1
 800108c:	601a      	str	r2, [r3, #0]
 800108e:	7026      	strb	r6, [r4, #0]
 8001090:	7028      	strb	r0, [r5, #0]
 8001092:	bdf0      	pop	{r4, r5, r6, r7, pc}
 8001094:	ffffefff 	.word	0xffffefff

08001098 <HAL_I2CEx_ConfigDigitalFilter>:
 8001098:	0002      	movs	r2, r0
 800109a:	b5f0      	push	{r4, r5, r6, r7, lr}
 800109c:	3241      	adds	r2, #65	@ 0x41
 800109e:	7814      	ldrb	r4, [r2, #0]
 80010a0:	0003      	movs	r3, r0
 80010a2:	b2e5      	uxtb	r5, r4
 80010a4:	2002      	movs	r0, #2
 80010a6:	2c20      	cmp	r4, #32
 80010a8:	d117      	bne.n	80010da <HAL_I2CEx_ConfigDigitalFilter+0x42>
 80010aa:	001c      	movs	r4, r3
 80010ac:	3440      	adds	r4, #64	@ 0x40
 80010ae:	7826      	ldrb	r6, [r4, #0]
 80010b0:	2e01      	cmp	r6, #1
 80010b2:	d012      	beq.n	80010da <HAL_I2CEx_ConfigDigitalFilter+0x42>
 80010b4:	3022      	adds	r0, #34	@ 0x22
 80010b6:	7010      	strb	r0, [r2, #0]
 80010b8:	681b      	ldr	r3, [r3, #0]
 80010ba:	3823      	subs	r0, #35	@ 0x23
 80010bc:	681e      	ldr	r6, [r3, #0]
 80010be:	4f07      	ldr	r7, [pc, #28]	@ (80010dc <HAL_I2CEx_ConfigDigitalFilter+0x44>)
 80010c0:	4386      	bics	r6, r0
 80010c2:	601e      	str	r6, [r3, #0]
 80010c4:	681e      	ldr	r6, [r3, #0]
 80010c6:	0209      	lsls	r1, r1, #8
 80010c8:	403e      	ands	r6, r7
 80010ca:	4331      	orrs	r1, r6
 80010cc:	6019      	str	r1, [r3, #0]
 80010ce:	6819      	ldr	r1, [r3, #0]
 80010d0:	4308      	orrs	r0, r1
 80010d2:	6018      	str	r0, [r3, #0]
 80010d4:	2000      	movs	r0, #0
 80010d6:	7015      	strb	r5, [r2, #0]
 80010d8:	7020      	strb	r0, [r4, #0]
 80010da:	bdf0      	pop	{r4, r5, r6, r7, pc}
 80010dc:	fffff0ff 	.word	0xfffff0ff

080010e0 <HAL_RCC_EnableCSS>:
 80010e0:	2380      	movs	r3, #128	@ 0x80
 80010e2:	4a03      	ldr	r2, [pc, #12]	@ (80010f0 <HAL_RCC_EnableCSS+0x10>)
 80010e4:	031b      	lsls	r3, r3, #12
 80010e6:	6811      	ldr	r1, [r2, #0]
 80010e8:	430b      	orrs	r3, r1
 80010ea:	6013      	str	r3, [r2, #0]
 80010ec:	4770      	bx	lr
 80010ee:	46c0      	nop			@ (mov r8, r8)
 80010f0:	40021000 	.word	0x40021000

080010f4 <HAL_RCC_GetSysClockFreq>:
 80010f4:	220c      	movs	r2, #12
 80010f6:	4b18      	ldr	r3, [pc, #96]	@ (8001158 <HAL_RCC_GetSysClockFreq+0x64>)
 80010f8:	b510      	push	{r4, lr}
 80010fa:	68d9      	ldr	r1, [r3, #12]
 80010fc:	400a      	ands	r2, r1
 80010fe:	2a08      	cmp	r2, #8
 8001100:	d027      	beq.n	8001152 <HAL_RCC_GetSysClockFreq+0x5e>
 8001102:	2a0c      	cmp	r2, #12
 8001104:	d009      	beq.n	800111a <HAL_RCC_GetSysClockFreq+0x26>
 8001106:	2a04      	cmp	r2, #4
 8001108:	d11b      	bne.n	8001142 <HAL_RCC_GetSysClockFreq+0x4e>
 800110a:	6818      	ldr	r0, [r3, #0]
 800110c:	4b13      	ldr	r3, [pc, #76]	@ (800115c <HAL_RCC_GetSysClockFreq+0x68>)
 800110e:	06c0      	lsls	r0, r0, #27
 8001110:	17c0      	asrs	r0, r0, #31
 8001112:	4018      	ands	r0, r3
 8001114:	4b12      	ldr	r3, [pc, #72]	@ (8001160 <HAL_RCC_GetSysClockFreq+0x6c>)
 8001116:	18c0      	adds	r0, r0, r3
 8001118:	bd10      	pop	{r4, pc}
 800111a:	4812      	ldr	r0, [pc, #72]	@ (8001164 <HAL_RCC_GetSysClockFreq+0x70>)
 800111c:	028a      	lsls	r2, r1, #10
 800111e:	0f12      	lsrs	r2, r2, #28
 8001120:	5c82      	ldrb	r2, [r0, r2]
 8001122:	0209      	lsls	r1, r1, #8
 8001124:	68d8      	ldr	r0, [r3, #12]
 8001126:	0f89      	lsrs	r1, r1, #30
 8001128:	3101      	adds	r1, #1
 800112a:	03c0      	lsls	r0, r0, #15
 800112c:	d504      	bpl.n	8001138 <HAL_RCC_GetSysClockFreq+0x44>
 800112e:	480e      	ldr	r0, [pc, #56]	@ (8001168 <HAL_RCC_GetSysClockFreq+0x74>)
 8001130:	4350      	muls	r0, r2
 8001132:	f7fe fff3 	bl	800011c <__udivsi3>
 8001136:	e7ef      	b.n	8001118 <HAL_RCC_GetSysClockFreq+0x24>
 8001138:	681b      	ldr	r3, [r3, #0]
 800113a:	06db      	lsls	r3, r3, #27
 800113c:	d4f7      	bmi.n	800112e <HAL_RCC_GetSysClockFreq+0x3a>
 800113e:	4808      	ldr	r0, [pc, #32]	@ (8001160 <HAL_RCC_GetSysClockFreq+0x6c>)
 8001140:	e7f6      	b.n	8001130 <HAL_RCC_GetSysClockFreq+0x3c>
 8001142:	2080      	movs	r0, #128	@ 0x80
 8001144:	685b      	ldr	r3, [r3, #4]
 8001146:	0200      	lsls	r0, r0, #8
 8001148:	041b      	lsls	r3, r3, #16
 800114a:	0f5b      	lsrs	r3, r3, #29
 800114c:	3301      	adds	r3, #1
 800114e:	4098      	lsls	r0, r3
 8001150:	e7e2      	b.n	8001118 <HAL_RCC_GetSysClockFreq+0x24>
 8001152:	4805      	ldr	r0, [pc, #20]	@ (8001168 <HAL_RCC_GetSysClockFreq+0x74>)
 8001154:	e7e0      	b.n	8001118 <HAL_RCC_GetSysClockFreq+0x24>
 8001156:	46c0      	nop			@ (mov r8, r8)
 8001158:	40021000 	.word	0x40021000
 800115c:	ff48e500 	.word	0xff48e500
 8001160:	00f42400 	.word	0x00f42400
 8001164:	08003fd4 	.word	0x08003fd4
 8001168:	003d0900 	.word	0x003d0900

0800116c <HAL_RCC_OscConfig>:
 800116c:	b5f0      	push	{r4, r5, r6, r7, lr}
 800116e:	0005      	movs	r5, r0
 8001170:	b085      	sub	sp, #20
 8001172:	2800      	cmp	r0, #0
 8001174:	d055      	beq.n	8001222 <HAL_RCC_OscConfig+0xb6>
 8001176:	230c      	movs	r3, #12
 8001178:	4cc0      	ldr	r4, [pc, #768]	@ (800147c <HAL_RCC_OscConfig+0x310>)
 800117a:	6802      	ldr	r2, [r0, #0]
 800117c:	68e6      	ldr	r6, [r4, #12]
 800117e:	68e7      	ldr	r7, [r4, #12]
 8001180:	401e      	ands	r6, r3
 8001182:	2380      	movs	r3, #128	@ 0x80
 8001184:	025b      	lsls	r3, r3, #9
 8001186:	0019      	movs	r1, r3
 8001188:	401f      	ands	r7, r3
 800118a:	07d2      	lsls	r2, r2, #31
 800118c:	d43d      	bmi.n	800120a <HAL_RCC_OscConfig+0x9e>
 800118e:	682b      	ldr	r3, [r5, #0]
 8001190:	079b      	lsls	r3, r3, #30
 8001192:	d500      	bpl.n	8001196 <HAL_RCC_OscConfig+0x2a>
 8001194:	e086      	b.n	80012a4 <HAL_RCC_OscConfig+0x138>
 8001196:	682b      	ldr	r3, [r5, #0]
 8001198:	06db      	lsls	r3, r3, #27
 800119a:	d528      	bpl.n	80011ee <HAL_RCC_OscConfig+0x82>
 800119c:	2e00      	cmp	r6, #0
 800119e:	d000      	beq.n	80011a2 <HAL_RCC_OscConfig+0x36>
 80011a0:	e0df      	b.n	8001362 <HAL_RCC_OscConfig+0x1f6>
 80011a2:	6823      	ldr	r3, [r4, #0]
 80011a4:	059b      	lsls	r3, r3, #22
 80011a6:	d502      	bpl.n	80011ae <HAL_RCC_OscConfig+0x42>
 80011a8:	69ab      	ldr	r3, [r5, #24]
 80011aa:	2b00      	cmp	r3, #0
 80011ac:	d039      	beq.n	8001222 <HAL_RCC_OscConfig+0xb6>
 80011ae:	2780      	movs	r7, #128	@ 0x80
 80011b0:	6862      	ldr	r2, [r4, #4]
 80011b2:	49b3      	ldr	r1, [pc, #716]	@ (8001480 <HAL_RCC_OscConfig+0x314>)
 80011b4:	6a2b      	ldr	r3, [r5, #32]
 80011b6:	400a      	ands	r2, r1
 80011b8:	431a      	orrs	r2, r3
 80011ba:	0b5b      	lsrs	r3, r3, #13
 80011bc:	3301      	adds	r3, #1
 80011be:	023f      	lsls	r7, r7, #8
 80011c0:	409f      	lsls	r7, r3
 80011c2:	6062      	str	r2, [r4, #4]
 80011c4:	6861      	ldr	r1, [r4, #4]
 80011c6:	69ea      	ldr	r2, [r5, #28]
 80011c8:	0209      	lsls	r1, r1, #8
 80011ca:	0a09      	lsrs	r1, r1, #8
 80011cc:	0612      	lsls	r2, r2, #24
 80011ce:	430a      	orrs	r2, r1
 80011d0:	6062      	str	r2, [r4, #4]
 80011d2:	68e1      	ldr	r1, [r4, #12]
 80011d4:	48ab      	ldr	r0, [pc, #684]	@ (8001484 <HAL_RCC_OscConfig+0x318>)
 80011d6:	060b      	lsls	r3, r1, #24
 80011d8:	0f1b      	lsrs	r3, r3, #28
 80011da:	5cc3      	ldrb	r3, [r0, r3]
 80011dc:	4aaa      	ldr	r2, [pc, #680]	@ (8001488 <HAL_RCC_OscConfig+0x31c>)
 80011de:	40df      	lsrs	r7, r3
 80011e0:	4baa      	ldr	r3, [pc, #680]	@ (800148c <HAL_RCC_OscConfig+0x320>)
 80011e2:	6017      	str	r7, [r2, #0]
 80011e4:	6818      	ldr	r0, [r3, #0]
 80011e6:	f7ff fc6f 	bl	8000ac8 <HAL_InitTick>
 80011ea:	2800      	cmp	r0, #0
 80011ec:	d130      	bne.n	8001250 <HAL_RCC_OscConfig+0xe4>
 80011ee:	682b      	ldr	r3, [r5, #0]
 80011f0:	071b      	lsls	r3, r3, #28
 80011f2:	d500      	bpl.n	80011f6 <HAL_RCC_OscConfig+0x8a>
 80011f4:	e0ec      	b.n	80013d0 <HAL_RCC_OscConfig+0x264>
 80011f6:	682b      	ldr	r3, [r5, #0]
 80011f8:	075b      	lsls	r3, r3, #29
 80011fa:	d500      	bpl.n	80011fe <HAL_RCC_OscConfig+0x92>
 80011fc:	e10e      	b.n	800141c <HAL_RCC_OscConfig+0x2b0>
 80011fe:	6a6b      	ldr	r3, [r5, #36]	@ 0x24
 8001200:	2b00      	cmp	r3, #0
 8001202:	d000      	beq.n	8001206 <HAL_RCC_OscConfig+0x9a>
 8001204:	e193      	b.n	800152e <HAL_RCC_OscConfig+0x3c2>
 8001206:	2000      	movs	r0, #0
 8001208:	e022      	b.n	8001250 <HAL_RCC_OscConfig+0xe4>
 800120a:	2e08      	cmp	r6, #8
 800120c:	d003      	beq.n	8001216 <HAL_RCC_OscConfig+0xaa>
 800120e:	2e0c      	cmp	r6, #12
 8001210:	d109      	bne.n	8001226 <HAL_RCC_OscConfig+0xba>
 8001212:	2f00      	cmp	r7, #0
 8001214:	d007      	beq.n	8001226 <HAL_RCC_OscConfig+0xba>
 8001216:	6823      	ldr	r3, [r4, #0]
 8001218:	039b      	lsls	r3, r3, #14
 800121a:	d5b8      	bpl.n	800118e <HAL_RCC_OscConfig+0x22>
 800121c:	686b      	ldr	r3, [r5, #4]
 800121e:	2b00      	cmp	r3, #0
 8001220:	d1b5      	bne.n	800118e <HAL_RCC_OscConfig+0x22>
 8001222:	2001      	movs	r0, #1
 8001224:	e014      	b.n	8001250 <HAL_RCC_OscConfig+0xe4>
 8001226:	686a      	ldr	r2, [r5, #4]
 8001228:	428a      	cmp	r2, r1
 800122a:	d113      	bne.n	8001254 <HAL_RCC_OscConfig+0xe8>
 800122c:	6822      	ldr	r2, [r4, #0]
 800122e:	4313      	orrs	r3, r2
 8001230:	6023      	str	r3, [r4, #0]
 8001232:	f7ff fc8d 	bl	8000b50 <HAL_GetTick>
 8001236:	9000      	str	r0, [sp, #0]
 8001238:	2280      	movs	r2, #128	@ 0x80
 800123a:	6823      	ldr	r3, [r4, #0]
 800123c:	0292      	lsls	r2, r2, #10
 800123e:	4213      	tst	r3, r2
 8001240:	d1a5      	bne.n	800118e <HAL_RCC_OscConfig+0x22>
 8001242:	f7ff fc85 	bl	8000b50 <HAL_GetTick>
 8001246:	9b00      	ldr	r3, [sp, #0]
 8001248:	1ac0      	subs	r0, r0, r3
 800124a:	2864      	cmp	r0, #100	@ 0x64
 800124c:	d9f4      	bls.n	8001238 <HAL_RCC_OscConfig+0xcc>
 800124e:	2003      	movs	r0, #3
 8001250:	b005      	add	sp, #20
 8001252:	bdf0      	pop	{r4, r5, r6, r7, pc}
 8001254:	21a0      	movs	r1, #160	@ 0xa0
 8001256:	02c9      	lsls	r1, r1, #11
 8001258:	428a      	cmp	r2, r1
 800125a:	d105      	bne.n	8001268 <HAL_RCC_OscConfig+0xfc>
 800125c:	2280      	movs	r2, #128	@ 0x80
 800125e:	6821      	ldr	r1, [r4, #0]
 8001260:	02d2      	lsls	r2, r2, #11
 8001262:	430a      	orrs	r2, r1
 8001264:	6022      	str	r2, [r4, #0]
 8001266:	e7e1      	b.n	800122c <HAL_RCC_OscConfig+0xc0>
 8001268:	6821      	ldr	r1, [r4, #0]
 800126a:	4889      	ldr	r0, [pc, #548]	@ (8001490 <HAL_RCC_OscConfig+0x324>)
 800126c:	4001      	ands	r1, r0
 800126e:	6021      	str	r1, [r4, #0]
 8001270:	6821      	ldr	r1, [r4, #0]
 8001272:	400b      	ands	r3, r1
 8001274:	9303      	str	r3, [sp, #12]
 8001276:	9b03      	ldr	r3, [sp, #12]
 8001278:	4986      	ldr	r1, [pc, #536]	@ (8001494 <HAL_RCC_OscConfig+0x328>)
 800127a:	6823      	ldr	r3, [r4, #0]
 800127c:	400b      	ands	r3, r1
 800127e:	6023      	str	r3, [r4, #0]
 8001280:	2a00      	cmp	r2, #0
 8001282:	d1d6      	bne.n	8001232 <HAL_RCC_OscConfig+0xc6>
 8001284:	f7ff fc64 	bl	8000b50 <HAL_GetTick>
 8001288:	9000      	str	r0, [sp, #0]
 800128a:	2280      	movs	r2, #128	@ 0x80
 800128c:	6823      	ldr	r3, [r4, #0]
 800128e:	0292      	lsls	r2, r2, #10
 8001290:	4213      	tst	r3, r2
 8001292:	d100      	bne.n	8001296 <HAL_RCC_OscConfig+0x12a>
 8001294:	e77b      	b.n	800118e <HAL_RCC_OscConfig+0x22>
 8001296:	f7ff fc5b 	bl	8000b50 <HAL_GetTick>
 800129a:	9b00      	ldr	r3, [sp, #0]
 800129c:	1ac0      	subs	r0, r0, r3
 800129e:	2864      	cmp	r0, #100	@ 0x64
 80012a0:	d9f3      	bls.n	800128a <HAL_RCC_OscConfig+0x11e>
 80012a2:	e7d4      	b.n	800124e <HAL_RCC_OscConfig+0xe2>
 80012a4:	2220      	movs	r2, #32
 80012a6:	68eb      	ldr	r3, [r5, #12]
 80012a8:	4213      	tst	r3, r2
 80012aa:	d003      	beq.n	80012b4 <HAL_RCC_OscConfig+0x148>
 80012ac:	6821      	ldr	r1, [r4, #0]
 80012ae:	4393      	bics	r3, r2
 80012b0:	4311      	orrs	r1, r2
 80012b2:	6021      	str	r1, [r4, #0]
 80012b4:	2e04      	cmp	r6, #4
 80012b6:	d003      	beq.n	80012c0 <HAL_RCC_OscConfig+0x154>
 80012b8:	2e0c      	cmp	r6, #12
 80012ba:	d124      	bne.n	8001306 <HAL_RCC_OscConfig+0x19a>
 80012bc:	2f00      	cmp	r7, #0
 80012be:	d122      	bne.n	8001306 <HAL_RCC_OscConfig+0x19a>
 80012c0:	6822      	ldr	r2, [r4, #0]
 80012c2:	0752      	lsls	r2, r2, #29
 80012c4:	d501      	bpl.n	80012ca <HAL_RCC_OscConfig+0x15e>
 80012c6:	2b00      	cmp	r3, #0
 80012c8:	d0ab      	beq.n	8001222 <HAL_RCC_OscConfig+0xb6>
 80012ca:	6861      	ldr	r1, [r4, #4]
 80012cc:	692a      	ldr	r2, [r5, #16]
 80012ce:	4872      	ldr	r0, [pc, #456]	@ (8001498 <HAL_RCC_OscConfig+0x32c>)
 80012d0:	0212      	lsls	r2, r2, #8
 80012d2:	4001      	ands	r1, r0
 80012d4:	430a      	orrs	r2, r1
 80012d6:	2109      	movs	r1, #9
 80012d8:	6062      	str	r2, [r4, #4]
 80012da:	6822      	ldr	r2, [r4, #0]
 80012dc:	438a      	bics	r2, r1
 80012de:	4313      	orrs	r3, r2
 80012e0:	6023      	str	r3, [r4, #0]
 80012e2:	f7ff ff07 	bl	80010f4 <HAL_RCC_GetSysClockFreq>
 80012e6:	68e3      	ldr	r3, [r4, #12]
 80012e8:	4a66      	ldr	r2, [pc, #408]	@ (8001484 <HAL_RCC_OscConfig+0x318>)
 80012ea:	061b      	lsls	r3, r3, #24
 80012ec:	0f1b      	lsrs	r3, r3, #28
 80012ee:	5cd3      	ldrb	r3, [r2, r3]
 80012f0:	4965      	ldr	r1, [pc, #404]	@ (8001488 <HAL_RCC_OscConfig+0x31c>)
 80012f2:	40d8      	lsrs	r0, r3
 80012f4:	4b65      	ldr	r3, [pc, #404]	@ (800148c <HAL_RCC_OscConfig+0x320>)
 80012f6:	6008      	str	r0, [r1, #0]
 80012f8:	6818      	ldr	r0, [r3, #0]
 80012fa:	f7ff fbe5 	bl	8000ac8 <HAL_InitTick>
 80012fe:	2800      	cmp	r0, #0
 8001300:	d100      	bne.n	8001304 <HAL_RCC_OscConfig+0x198>
 8001302:	e748      	b.n	8001196 <HAL_RCC_OscConfig+0x2a>
 8001304:	e7a4      	b.n	8001250 <HAL_RCC_OscConfig+0xe4>
 8001306:	2b00      	cmp	r3, #0
 8001308:	d019      	beq.n	800133e <HAL_RCC_OscConfig+0x1d2>
 800130a:	2109      	movs	r1, #9
 800130c:	6822      	ldr	r2, [r4, #0]
 800130e:	438a      	bics	r2, r1
 8001310:	4313      	orrs	r3, r2
 8001312:	6023      	str	r3, [r4, #0]
 8001314:	f7ff fc1c 	bl	8000b50 <HAL_GetTick>
 8001318:	0007      	movs	r7, r0
 800131a:	2204      	movs	r2, #4
 800131c:	6823      	ldr	r3, [r4, #0]
 800131e:	4213      	tst	r3, r2
 8001320:	d007      	beq.n	8001332 <HAL_RCC_OscConfig+0x1c6>
 8001322:	6862      	ldr	r2, [r4, #4]
 8001324:	692b      	ldr	r3, [r5, #16]
 8001326:	495c      	ldr	r1, [pc, #368]	@ (8001498 <HAL_RCC_OscConfig+0x32c>)
 8001328:	021b      	lsls	r3, r3, #8
 800132a:	400a      	ands	r2, r1
 800132c:	4313      	orrs	r3, r2
 800132e:	6063      	str	r3, [r4, #4]
 8001330:	e731      	b.n	8001196 <HAL_RCC_OscConfig+0x2a>
 8001332:	f7ff fc0d 	bl	8000b50 <HAL_GetTick>
 8001336:	1bc0      	subs	r0, r0, r7
 8001338:	2802      	cmp	r0, #2
 800133a:	d9ee      	bls.n	800131a <HAL_RCC_OscConfig+0x1ae>
 800133c:	e787      	b.n	800124e <HAL_RCC_OscConfig+0xe2>
 800133e:	2201      	movs	r2, #1
 8001340:	6823      	ldr	r3, [r4, #0]
 8001342:	4393      	bics	r3, r2
 8001344:	6023      	str	r3, [r4, #0]
 8001346:	f7ff fc03 	bl	8000b50 <HAL_GetTick>
 800134a:	0007      	movs	r7, r0
 800134c:	2204      	movs	r2, #4
 800134e:	6823      	ldr	r3, [r4, #0]
 8001350:	4213      	tst	r3, r2
 8001352:	d100      	bne.n	8001356 <HAL_RCC_OscConfig+0x1ea>
 8001354:	e71f      	b.n	8001196 <HAL_RCC_OscConfig+0x2a>
 8001356:	f7ff fbfb 	bl	8000b50 <HAL_GetTick>
 800135a:	1bc0      	subs	r0, r0, r7
 800135c:	2802      	cmp	r0, #2
 800135e:	d9f5      	bls.n	800134c <HAL_RCC_OscConfig+0x1e0>
 8001360:	e775      	b.n	800124e <HAL_RCC_OscConfig+0xe2>
 8001362:	69ab      	ldr	r3, [r5, #24]
 8001364:	2b00      	cmp	r3, #0
 8001366:	d020      	beq.n	80013aa <HAL_RCC_OscConfig+0x23e>
 8001368:	2380      	movs	r3, #128	@ 0x80
 800136a:	6822      	ldr	r2, [r4, #0]
 800136c:	005b      	lsls	r3, r3, #1
 800136e:	4313      	orrs	r3, r2
 8001370:	6023      	str	r3, [r4, #0]
 8001372:	f7ff fbed 	bl	8000b50 <HAL_GetTick>
 8001376:	0007      	movs	r7, r0
 8001378:	2280      	movs	r2, #128	@ 0x80
 800137a:	6823      	ldr	r3, [r4, #0]
 800137c:	0092      	lsls	r2, r2, #2
 800137e:	4213      	tst	r3, r2
 8001380:	d00d      	beq.n	800139e <HAL_RCC_OscConfig+0x232>
 8001382:	6863      	ldr	r3, [r4, #4]
 8001384:	4a3e      	ldr	r2, [pc, #248]	@ (8001480 <HAL_RCC_OscConfig+0x314>)
 8001386:	4013      	ands	r3, r2
 8001388:	6a2a      	ldr	r2, [r5, #32]
 800138a:	4313      	orrs	r3, r2
 800138c:	6063      	str	r3, [r4, #4]
 800138e:	6862      	ldr	r2, [r4, #4]
 8001390:	69eb      	ldr	r3, [r5, #28]
 8001392:	0212      	lsls	r2, r2, #8
 8001394:	061b      	lsls	r3, r3, #24
 8001396:	0a12      	lsrs	r2, r2, #8
 8001398:	4313      	orrs	r3, r2
 800139a:	6063      	str	r3, [r4, #4]
 800139c:	e727      	b.n	80011ee <HAL_RCC_OscConfig+0x82>
 800139e:	f7ff fbd7 	bl	8000b50 <HAL_GetTick>
 80013a2:	1bc0      	subs	r0, r0, r7
 80013a4:	2802      	cmp	r0, #2
 80013a6:	d9e7      	bls.n	8001378 <HAL_RCC_OscConfig+0x20c>
 80013a8:	e751      	b.n	800124e <HAL_RCC_OscConfig+0xe2>
 80013aa:	6823      	ldr	r3, [r4, #0]
 80013ac:	4a3b      	ldr	r2, [pc, #236]	@ (800149c <HAL_RCC_OscConfig+0x330>)
 80013ae:	4013      	ands	r3, r2
 80013b0:	6023      	str	r3, [r4, #0]
 80013b2:	f7ff fbcd 	bl	8000b50 <HAL_GetTick>
 80013b6:	0007      	movs	r7, r0
 80013b8:	2280      	movs	r2, #128	@ 0x80
 80013ba:	6823      	ldr	r3, [r4, #0]
 80013bc:	0092      	lsls	r2, r2, #2
 80013be:	4213      	tst	r3, r2
 80013c0:	d100      	bne.n	80013c4 <HAL_RCC_OscConfig+0x258>
 80013c2:	e714      	b.n	80011ee <HAL_RCC_OscConfig+0x82>
 80013c4:	f7ff fbc4 	bl	8000b50 <HAL_GetTick>
 80013c8:	1bc0      	subs	r0, r0, r7
 80013ca:	2802      	cmp	r0, #2
 80013cc:	d9f4      	bls.n	80013b8 <HAL_RCC_OscConfig+0x24c>
 80013ce:	e73e      	b.n	800124e <HAL_RCC_OscConfig+0xe2>
 80013d0:	696a      	ldr	r2, [r5, #20]
 80013d2:	2301      	movs	r3, #1
 80013d4:	2a00      	cmp	r2, #0
 80013d6:	d010      	beq.n	80013fa <HAL_RCC_OscConfig+0x28e>
 80013d8:	6d22      	ldr	r2, [r4, #80]	@ 0x50
 80013da:	4313      	orrs	r3, r2
 80013dc:	6523      	str	r3, [r4, #80]	@ 0x50
 80013de:	f7ff fbb7 	bl	8000b50 <HAL_GetTick>
 80013e2:	0007      	movs	r7, r0
 80013e4:	2202      	movs	r2, #2
 80013e6:	6d23      	ldr	r3, [r4, #80]	@ 0x50
 80013e8:	4213      	tst	r3, r2
 80013ea:	d000      	beq.n	80013ee <HAL_RCC_OscConfig+0x282>
 80013ec:	e703      	b.n	80011f6 <HAL_RCC_OscConfig+0x8a>
 80013ee:	f7ff fbaf 	bl	8000b50 <HAL_GetTick>
 80013f2:	1bc0      	subs	r0, r0, r7
 80013f4:	2802      	cmp	r0, #2
 80013f6:	d9f5      	bls.n	80013e4 <HAL_RCC_OscConfig+0x278>
 80013f8:	e729      	b.n	800124e <HAL_RCC_OscConfig+0xe2>
 80013fa:	6d22      	ldr	r2, [r4, #80]	@ 0x50
 80013fc:	439a      	bics	r2, r3
 80013fe:	6522      	str	r2, [r4, #80]	@ 0x50
 8001400:	f7ff fba6 	bl	8000b50 <HAL_GetTick>
 8001404:	0007      	movs	r7, r0
 8001406:	2202      	movs	r2, #2
 8001408:	6d23      	ldr	r3, [r4, #80]	@ 0x50
 800140a:	4213      	tst	r3, r2
 800140c:	d100      	bne.n	8001410 <HAL_RCC_OscConfig+0x2a4>
 800140e:	e6f2      	b.n	80011f6 <HAL_RCC_OscConfig+0x8a>
 8001410:	f7ff fb9e 	bl	8000b50 <HAL_GetTick>
 8001414:	1bc0      	subs	r0, r0, r7
 8001416:	2802      	cmp	r0, #2
 8001418:	d9f5      	bls.n	8001406 <HAL_RCC_OscConfig+0x29a>
 800141a:	e718      	b.n	800124e <HAL_RCC_OscConfig+0xe2>
 800141c:	2380      	movs	r3, #128	@ 0x80
 800141e:	2100      	movs	r1, #0
 8001420:	6ba2      	ldr	r2, [r4, #56]	@ 0x38
 8001422:	055b      	lsls	r3, r3, #21
 8001424:	9100      	str	r1, [sp, #0]
 8001426:	421a      	tst	r2, r3
 8001428:	d104      	bne.n	8001434 <HAL_RCC_OscConfig+0x2c8>
 800142a:	6ba2      	ldr	r2, [r4, #56]	@ 0x38
 800142c:	4313      	orrs	r3, r2
 800142e:	63a3      	str	r3, [r4, #56]	@ 0x38
 8001430:	2301      	movs	r3, #1
 8001432:	9300      	str	r3, [sp, #0]
 8001434:	2280      	movs	r2, #128	@ 0x80
 8001436:	4f1a      	ldr	r7, [pc, #104]	@ (80014a0 <HAL_RCC_OscConfig+0x334>)
 8001438:	0052      	lsls	r2, r2, #1
 800143a:	683b      	ldr	r3, [r7, #0]
 800143c:	4213      	tst	r3, r2
 800143e:	d008      	beq.n	8001452 <HAL_RCC_OscConfig+0x2e6>
 8001440:	2280      	movs	r2, #128	@ 0x80
 8001442:	68ab      	ldr	r3, [r5, #8]
 8001444:	0052      	lsls	r2, r2, #1
 8001446:	4293      	cmp	r3, r2
 8001448:	d12c      	bne.n	80014a4 <HAL_RCC_OscConfig+0x338>
 800144a:	6d22      	ldr	r2, [r4, #80]	@ 0x50
 800144c:	4313      	orrs	r3, r2
 800144e:	6523      	str	r3, [r4, #80]	@ 0x50
 8001450:	e04d      	b.n	80014ee <HAL_RCC_OscConfig+0x382>
 8001452:	2280      	movs	r2, #128	@ 0x80
 8001454:	683b      	ldr	r3, [r7, #0]
 8001456:	0052      	lsls	r2, r2, #1
 8001458:	4313      	orrs	r3, r2
 800145a:	603b      	str	r3, [r7, #0]
 800145c:	f7ff fb78 	bl	8000b50 <HAL_GetTick>
 8001460:	9001      	str	r0, [sp, #4]
 8001462:	2280      	movs	r2, #128	@ 0x80
 8001464:	683b      	ldr	r3, [r7, #0]
 8001466:	0052      	lsls	r2, r2, #1
 8001468:	4213      	tst	r3, r2
 800146a:	d1e9      	bne.n	8001440 <HAL_RCC_OscConfig+0x2d4>
 800146c:	f7ff fb70 	bl	8000b50 <HAL_GetTick>
 8001470:	9b01      	ldr	r3, [sp, #4]
 8001472:	1ac0      	subs	r0, r0, r3
 8001474:	2864      	cmp	r0, #100	@ 0x64
 8001476:	d9f4      	bls.n	8001462 <HAL_RCC_OscConfig+0x2f6>
 8001478:	e6e9      	b.n	800124e <HAL_RCC_OscConfig+0xe2>
 800147a:	46c0      	nop			@ (mov r8, r8)
 800147c:	40021000 	.word	0x40021000
 8001480:	ffff1fff 	.word	0xffff1fff
 8001484:	08003fe5 	.word	0x08003fe5
 8001488:	20000000 	.word	0x20000000
 800148c:	20000008 	.word	0x20000008
 8001490:	fffeffff 	.word	0xfffeffff
 8001494:	fffbffff 	.word	0xfffbffff
 8001498:	ffffe0ff 	.word	0xffffe0ff
 800149c:	fffffeff 	.word	0xfffffeff
 80014a0:	40007000 	.word	0x40007000
 80014a4:	2b00      	cmp	r3, #0
 80014a6:	d116      	bne.n	80014d6 <HAL_RCC_OscConfig+0x36a>
 80014a8:	6d23      	ldr	r3, [r4, #80]	@ 0x50
 80014aa:	4a51      	ldr	r2, [pc, #324]	@ (80015f0 <HAL_RCC_OscConfig+0x484>)
 80014ac:	4013      	ands	r3, r2
 80014ae:	6523      	str	r3, [r4, #80]	@ 0x50
 80014b0:	6d23      	ldr	r3, [r4, #80]	@ 0x50
 80014b2:	4a50      	ldr	r2, [pc, #320]	@ (80015f4 <HAL_RCC_OscConfig+0x488>)
 80014b4:	4013      	ands	r3, r2
 80014b6:	6523      	str	r3, [r4, #80]	@ 0x50
 80014b8:	f7ff fb4a 	bl	8000b50 <HAL_GetTick>
 80014bc:	0007      	movs	r7, r0
 80014be:	2280      	movs	r2, #128	@ 0x80
 80014c0:	6d23      	ldr	r3, [r4, #80]	@ 0x50
 80014c2:	0092      	lsls	r2, r2, #2
 80014c4:	4213      	tst	r3, r2
 80014c6:	d01a      	beq.n	80014fe <HAL_RCC_OscConfig+0x392>
 80014c8:	f7ff fb42 	bl	8000b50 <HAL_GetTick>
 80014cc:	4b4a      	ldr	r3, [pc, #296]	@ (80015f8 <HAL_RCC_OscConfig+0x48c>)
 80014ce:	1bc0      	subs	r0, r0, r7
 80014d0:	4298      	cmp	r0, r3
 80014d2:	d9f4      	bls.n	80014be <HAL_RCC_OscConfig+0x352>
 80014d4:	e6bb      	b.n	800124e <HAL_RCC_OscConfig+0xe2>
 80014d6:	21a0      	movs	r1, #160	@ 0xa0
 80014d8:	00c9      	lsls	r1, r1, #3
 80014da:	428b      	cmp	r3, r1
 80014dc:	d118      	bne.n	8001510 <HAL_RCC_OscConfig+0x3a4>
 80014de:	2380      	movs	r3, #128	@ 0x80
 80014e0:	6d21      	ldr	r1, [r4, #80]	@ 0x50
 80014e2:	00db      	lsls	r3, r3, #3
 80014e4:	430b      	orrs	r3, r1
 80014e6:	6523      	str	r3, [r4, #80]	@ 0x50
 80014e8:	6d23      	ldr	r3, [r4, #80]	@ 0x50
 80014ea:	431a      	orrs	r2, r3
 80014ec:	6522      	str	r2, [r4, #80]	@ 0x50
 80014ee:	f7ff fb2f 	bl	8000b50 <HAL_GetTick>
 80014f2:	0007      	movs	r7, r0
 80014f4:	2280      	movs	r2, #128	@ 0x80
 80014f6:	6d23      	ldr	r3, [r4, #80]	@ 0x50
 80014f8:	0092      	lsls	r2, r2, #2
 80014fa:	4213      	tst	r3, r2
 80014fc:	d010      	beq.n	8001520 <HAL_RCC_OscConfig+0x3b4>
 80014fe:	9b00      	ldr	r3, [sp, #0]
 8001500:	2b01      	cmp	r3, #1
 8001502:	d000      	beq.n	8001506 <HAL_RCC_OscConfig+0x39a>
 8001504:	e67b      	b.n	80011fe <HAL_RCC_OscConfig+0x92>
 8001506:	6ba3      	ldr	r3, [r4, #56]	@ 0x38
 8001508:	4a3c      	ldr	r2, [pc, #240]	@ (80015fc <HAL_RCC_OscConfig+0x490>)
 800150a:	4013      	ands	r3, r2
 800150c:	63a3      	str	r3, [r4, #56]	@ 0x38
 800150e:	e676      	b.n	80011fe <HAL_RCC_OscConfig+0x92>
 8001510:	6d23      	ldr	r3, [r4, #80]	@ 0x50
 8001512:	4a37      	ldr	r2, [pc, #220]	@ (80015f0 <HAL_RCC_OscConfig+0x484>)
 8001514:	4013      	ands	r3, r2
 8001516:	6523      	str	r3, [r4, #80]	@ 0x50
 8001518:	6d23      	ldr	r3, [r4, #80]	@ 0x50
 800151a:	4a36      	ldr	r2, [pc, #216]	@ (80015f4 <HAL_RCC_OscConfig+0x488>)
 800151c:	4013      	ands	r3, r2
 800151e:	e796      	b.n	800144e <HAL_RCC_OscConfig+0x2e2>
 8001520:	f7ff fb16 	bl	8000b50 <HAL_GetTick>
 8001524:	4b34      	ldr	r3, [pc, #208]	@ (80015f8 <HAL_RCC_OscConfig+0x48c>)
 8001526:	1bc0      	subs	r0, r0, r7
 8001528:	4298      	cmp	r0, r3
 800152a:	d9e3      	bls.n	80014f4 <HAL_RCC_OscConfig+0x388>
 800152c:	e68f      	b.n	800124e <HAL_RCC_OscConfig+0xe2>
 800152e:	2e0c      	cmp	r6, #12
 8001530:	d043      	beq.n	80015ba <HAL_RCC_OscConfig+0x44e>
 8001532:	4a33      	ldr	r2, [pc, #204]	@ (8001600 <HAL_RCC_OscConfig+0x494>)
 8001534:	2b02      	cmp	r3, #2
 8001536:	d12e      	bne.n	8001596 <HAL_RCC_OscConfig+0x42a>
 8001538:	6823      	ldr	r3, [r4, #0]
 800153a:	2780      	movs	r7, #128	@ 0x80
 800153c:	4013      	ands	r3, r2
 800153e:	6023      	str	r3, [r4, #0]
 8001540:	f7ff fb06 	bl	8000b50 <HAL_GetTick>
 8001544:	0006      	movs	r6, r0
 8001546:	04bf      	lsls	r7, r7, #18
 8001548:	6823      	ldr	r3, [r4, #0]
 800154a:	423b      	tst	r3, r7
 800154c:	d11d      	bne.n	800158a <HAL_RCC_OscConfig+0x41e>
 800154e:	6ae9      	ldr	r1, [r5, #44]	@ 0x2c
 8001550:	6aab      	ldr	r3, [r5, #40]	@ 0x28
 8001552:	68e2      	ldr	r2, [r4, #12]
 8001554:	430b      	orrs	r3, r1
 8001556:	492b      	ldr	r1, [pc, #172]	@ (8001604 <HAL_RCC_OscConfig+0x498>)
 8001558:	2680      	movs	r6, #128	@ 0x80
 800155a:	400a      	ands	r2, r1
 800155c:	4313      	orrs	r3, r2
 800155e:	6b2a      	ldr	r2, [r5, #48]	@ 0x30
 8001560:	04b6      	lsls	r6, r6, #18
 8001562:	4313      	orrs	r3, r2
 8001564:	60e3      	str	r3, [r4, #12]
 8001566:	2380      	movs	r3, #128	@ 0x80
 8001568:	6822      	ldr	r2, [r4, #0]
 800156a:	045b      	lsls	r3, r3, #17
 800156c:	4313      	orrs	r3, r2
 800156e:	6023      	str	r3, [r4, #0]
 8001570:	f7ff faee 	bl	8000b50 <HAL_GetTick>
 8001574:	0005      	movs	r5, r0
 8001576:	6823      	ldr	r3, [r4, #0]
 8001578:	4233      	tst	r3, r6
 800157a:	d000      	beq.n	800157e <HAL_RCC_OscConfig+0x412>
 800157c:	e643      	b.n	8001206 <HAL_RCC_OscConfig+0x9a>
 800157e:	f7ff fae7 	bl	8000b50 <HAL_GetTick>
 8001582:	1b40      	subs	r0, r0, r5
 8001584:	2802      	cmp	r0, #2
 8001586:	d9f6      	bls.n	8001576 <HAL_RCC_OscConfig+0x40a>
 8001588:	e661      	b.n	800124e <HAL_RCC_OscConfig+0xe2>
 800158a:	f7ff fae1 	bl	8000b50 <HAL_GetTick>
 800158e:	1b80      	subs	r0, r0, r6
 8001590:	2802      	cmp	r0, #2
 8001592:	d9d9      	bls.n	8001548 <HAL_RCC_OscConfig+0x3dc>
 8001594:	e65b      	b.n	800124e <HAL_RCC_OscConfig+0xe2>
 8001596:	6823      	ldr	r3, [r4, #0]
 8001598:	2680      	movs	r6, #128	@ 0x80
 800159a:	4013      	ands	r3, r2
 800159c:	6023      	str	r3, [r4, #0]
 800159e:	f7ff fad7 	bl	8000b50 <HAL_GetTick>
 80015a2:	0005      	movs	r5, r0
 80015a4:	04b6      	lsls	r6, r6, #18
 80015a6:	6823      	ldr	r3, [r4, #0]
 80015a8:	4233      	tst	r3, r6
 80015aa:	d100      	bne.n	80015ae <HAL_RCC_OscConfig+0x442>
 80015ac:	e62b      	b.n	8001206 <HAL_RCC_OscConfig+0x9a>
 80015ae:	f7ff facf 	bl	8000b50 <HAL_GetTick>
 80015b2:	1b40      	subs	r0, r0, r5
 80015b4:	2802      	cmp	r0, #2
 80015b6:	d9f6      	bls.n	80015a6 <HAL_RCC_OscConfig+0x43a>
 80015b8:	e649      	b.n	800124e <HAL_RCC_OscConfig+0xe2>
 80015ba:	2b01      	cmp	r3, #1
 80015bc:	d100      	bne.n	80015c0 <HAL_RCC_OscConfig+0x454>
 80015be:	e630      	b.n	8001222 <HAL_RCC_OscConfig+0xb6>
 80015c0:	2380      	movs	r3, #128	@ 0x80
 80015c2:	68e0      	ldr	r0, [r4, #12]
 80015c4:	6aaa      	ldr	r2, [r5, #40]	@ 0x28
 80015c6:	025b      	lsls	r3, r3, #9
 80015c8:	4003      	ands	r3, r0
 80015ca:	4293      	cmp	r3, r2
 80015cc:	d000      	beq.n	80015d0 <HAL_RCC_OscConfig+0x464>
 80015ce:	e628      	b.n	8001222 <HAL_RCC_OscConfig+0xb6>
 80015d0:	23f0      	movs	r3, #240	@ 0xf0
 80015d2:	6aea      	ldr	r2, [r5, #44]	@ 0x2c
 80015d4:	039b      	lsls	r3, r3, #14
 80015d6:	4003      	ands	r3, r0
 80015d8:	4293      	cmp	r3, r2
 80015da:	d000      	beq.n	80015de <HAL_RCC_OscConfig+0x472>
 80015dc:	e621      	b.n	8001222 <HAL_RCC_OscConfig+0xb6>
 80015de:	23c0      	movs	r3, #192	@ 0xc0
 80015e0:	041b      	lsls	r3, r3, #16
 80015e2:	4018      	ands	r0, r3
 80015e4:	6b2b      	ldr	r3, [r5, #48]	@ 0x30
 80015e6:	1ac0      	subs	r0, r0, r3
 80015e8:	1e43      	subs	r3, r0, #1
 80015ea:	4198      	sbcs	r0, r3
 80015ec:	b2c0      	uxtb	r0, r0
 80015ee:	e62f      	b.n	8001250 <HAL_RCC_OscConfig+0xe4>
 80015f0:	fffffeff 	.word	0xfffffeff
 80015f4:	fffffbff 	.word	0xfffffbff
 80015f8:	00001388 	.word	0x00001388
 80015fc:	efffffff 	.word	0xefffffff
 8001600:	feffffff 	.word	0xfeffffff
 8001604:	ff02ffff 	.word	0xff02ffff

08001608 <HAL_RCC_ClockConfig>:
 8001608:	b5f7      	push	{r0, r1, r2, r4, r5, r6, r7, lr}
 800160a:	1e04      	subs	r4, r0, #0
 800160c:	9101      	str	r1, [sp, #4]
 800160e:	d101      	bne.n	8001614 <HAL_RCC_ClockConfig+0xc>
 8001610:	2001      	movs	r0, #1
 8001612:	bdfe      	pop	{r1, r2, r3, r4, r5, r6, r7, pc}
 8001614:	2501      	movs	r5, #1
 8001616:	4e5b      	ldr	r6, [pc, #364]	@ (8001784 <HAL_RCC_ClockConfig+0x17c>)
 8001618:	9a01      	ldr	r2, [sp, #4]
 800161a:	6833      	ldr	r3, [r6, #0]
 800161c:	402b      	ands	r3, r5
 800161e:	4293      	cmp	r3, r2
 8001620:	d331      	bcc.n	8001686 <HAL_RCC_ClockConfig+0x7e>
 8001622:	6822      	ldr	r2, [r4, #0]
 8001624:	0793      	lsls	r3, r2, #30
 8001626:	d443      	bmi.n	80016b0 <HAL_RCC_ClockConfig+0xa8>
 8001628:	07d2      	lsls	r2, r2, #31
 800162a:	d449      	bmi.n	80016c0 <HAL_RCC_ClockConfig+0xb8>
 800162c:	2501      	movs	r5, #1
 800162e:	6833      	ldr	r3, [r6, #0]
 8001630:	9a01      	ldr	r2, [sp, #4]
 8001632:	402b      	ands	r3, r5
 8001634:	4293      	cmp	r3, r2
 8001636:	d909      	bls.n	800164c <HAL_RCC_ClockConfig+0x44>
 8001638:	6833      	ldr	r3, [r6, #0]
 800163a:	43ab      	bics	r3, r5
 800163c:	6033      	str	r3, [r6, #0]
 800163e:	f7ff fa87 	bl	8000b50 <HAL_GetTick>
 8001642:	0007      	movs	r7, r0
 8001644:	6833      	ldr	r3, [r6, #0]
 8001646:	422b      	tst	r3, r5
 8001648:	d000      	beq.n	800164c <HAL_RCC_ClockConfig+0x44>
 800164a:	e08c      	b.n	8001766 <HAL_RCC_ClockConfig+0x15e>
 800164c:	6822      	ldr	r2, [r4, #0]
 800164e:	4d4e      	ldr	r5, [pc, #312]	@ (8001788 <HAL_RCC_ClockConfig+0x180>)
 8001650:	0753      	lsls	r3, r2, #29
 8001652:	d500      	bpl.n	8001656 <HAL_RCC_ClockConfig+0x4e>
 8001654:	e08f      	b.n	8001776 <HAL_RCC_ClockConfig+0x16e>
 8001656:	0712      	lsls	r2, r2, #28
 8001658:	d506      	bpl.n	8001668 <HAL_RCC_ClockConfig+0x60>
 800165a:	68ea      	ldr	r2, [r5, #12]
 800165c:	6923      	ldr	r3, [r4, #16]
 800165e:	494b      	ldr	r1, [pc, #300]	@ (800178c <HAL_RCC_ClockConfig+0x184>)
 8001660:	00db      	lsls	r3, r3, #3
 8001662:	400a      	ands	r2, r1
 8001664:	4313      	orrs	r3, r2
 8001666:	60eb      	str	r3, [r5, #12]
 8001668:	f7ff fd44 	bl	80010f4 <HAL_RCC_GetSysClockFreq>
 800166c:	68eb      	ldr	r3, [r5, #12]
 800166e:	4a48      	ldr	r2, [pc, #288]	@ (8001790 <HAL_RCC_ClockConfig+0x188>)
 8001670:	061b      	lsls	r3, r3, #24
 8001672:	0f1b      	lsrs	r3, r3, #28
 8001674:	5cd3      	ldrb	r3, [r2, r3]
 8001676:	4947      	ldr	r1, [pc, #284]	@ (8001794 <HAL_RCC_ClockConfig+0x18c>)
 8001678:	40d8      	lsrs	r0, r3
 800167a:	4b47      	ldr	r3, [pc, #284]	@ (8001798 <HAL_RCC_ClockConfig+0x190>)
 800167c:	6008      	str	r0, [r1, #0]
 800167e:	6818      	ldr	r0, [r3, #0]
 8001680:	f7ff fa22 	bl	8000ac8 <HAL_InitTick>
 8001684:	e7c5      	b.n	8001612 <HAL_RCC_ClockConfig+0xa>
 8001686:	6833      	ldr	r3, [r6, #0]
 8001688:	9a01      	ldr	r2, [sp, #4]
 800168a:	43ab      	bics	r3, r5
 800168c:	4313      	orrs	r3, r2
 800168e:	6033      	str	r3, [r6, #0]
 8001690:	f7ff fa5e 	bl	8000b50 <HAL_GetTick>
 8001694:	0007      	movs	r7, r0
 8001696:	6833      	ldr	r3, [r6, #0]
 8001698:	9a01      	ldr	r2, [sp, #4]
 800169a:	402b      	ands	r3, r5
 800169c:	4293      	cmp	r3, r2
 800169e:	d0c0      	beq.n	8001622 <HAL_RCC_ClockConfig+0x1a>
 80016a0:	f7ff fa56 	bl	8000b50 <HAL_GetTick>
 80016a4:	4b3d      	ldr	r3, [pc, #244]	@ (800179c <HAL_RCC_ClockConfig+0x194>)
 80016a6:	1bc0      	subs	r0, r0, r7
 80016a8:	4298      	cmp	r0, r3
 80016aa:	d9f4      	bls.n	8001696 <HAL_RCC_ClockConfig+0x8e>
 80016ac:	2003      	movs	r0, #3
 80016ae:	e7b0      	b.n	8001612 <HAL_RCC_ClockConfig+0xa>
 80016b0:	20f0      	movs	r0, #240	@ 0xf0
 80016b2:	4935      	ldr	r1, [pc, #212]	@ (8001788 <HAL_RCC_ClockConfig+0x180>)
 80016b4:	68cb      	ldr	r3, [r1, #12]
 80016b6:	4383      	bics	r3, r0
 80016b8:	68a0      	ldr	r0, [r4, #8]
 80016ba:	4303      	orrs	r3, r0
 80016bc:	60cb      	str	r3, [r1, #12]
 80016be:	e7b3      	b.n	8001628 <HAL_RCC_ClockConfig+0x20>
 80016c0:	4d31      	ldr	r5, [pc, #196]	@ (8001788 <HAL_RCC_ClockConfig+0x180>)
 80016c2:	6862      	ldr	r2, [r4, #4]
 80016c4:	682b      	ldr	r3, [r5, #0]
 80016c6:	2a02      	cmp	r2, #2
 80016c8:	d118      	bne.n	80016fc <HAL_RCC_ClockConfig+0xf4>
 80016ca:	039b      	lsls	r3, r3, #14
 80016cc:	d5a0      	bpl.n	8001610 <HAL_RCC_ClockConfig+0x8>
 80016ce:	2103      	movs	r1, #3
 80016d0:	68eb      	ldr	r3, [r5, #12]
 80016d2:	438b      	bics	r3, r1
 80016d4:	4313      	orrs	r3, r2
 80016d6:	60eb      	str	r3, [r5, #12]
 80016d8:	f7ff fa3a 	bl	8000b50 <HAL_GetTick>
 80016dc:	6863      	ldr	r3, [r4, #4]
 80016de:	0007      	movs	r7, r0
 80016e0:	2b02      	cmp	r3, #2
 80016e2:	d118      	bne.n	8001716 <HAL_RCC_ClockConfig+0x10e>
 80016e4:	220c      	movs	r2, #12
 80016e6:	68eb      	ldr	r3, [r5, #12]
 80016e8:	4013      	ands	r3, r2
 80016ea:	2b08      	cmp	r3, #8
 80016ec:	d09e      	beq.n	800162c <HAL_RCC_ClockConfig+0x24>
 80016ee:	f7ff fa2f 	bl	8000b50 <HAL_GetTick>
 80016f2:	4b2a      	ldr	r3, [pc, #168]	@ (800179c <HAL_RCC_ClockConfig+0x194>)
 80016f4:	1bc0      	subs	r0, r0, r7
 80016f6:	4298      	cmp	r0, r3
 80016f8:	d9f4      	bls.n	80016e4 <HAL_RCC_ClockConfig+0xdc>
 80016fa:	e7d7      	b.n	80016ac <HAL_RCC_ClockConfig+0xa4>
 80016fc:	2a03      	cmp	r2, #3
 80016fe:	d102      	bne.n	8001706 <HAL_RCC_ClockConfig+0xfe>
 8001700:	019b      	lsls	r3, r3, #6
 8001702:	d4e4      	bmi.n	80016ce <HAL_RCC_ClockConfig+0xc6>
 8001704:	e784      	b.n	8001610 <HAL_RCC_ClockConfig+0x8>
 8001706:	2a01      	cmp	r2, #1
 8001708:	d102      	bne.n	8001710 <HAL_RCC_ClockConfig+0x108>
 800170a:	075b      	lsls	r3, r3, #29
 800170c:	d4df      	bmi.n	80016ce <HAL_RCC_ClockConfig+0xc6>
 800170e:	e77f      	b.n	8001610 <HAL_RCC_ClockConfig+0x8>
 8001710:	059b      	lsls	r3, r3, #22
 8001712:	d4dc      	bmi.n	80016ce <HAL_RCC_ClockConfig+0xc6>
 8001714:	e77c      	b.n	8001610 <HAL_RCC_ClockConfig+0x8>
 8001716:	2b03      	cmp	r3, #3
 8001718:	d10b      	bne.n	8001732 <HAL_RCC_ClockConfig+0x12a>
 800171a:	220c      	movs	r2, #12
 800171c:	68eb      	ldr	r3, [r5, #12]
 800171e:	4013      	ands	r3, r2
 8001720:	4293      	cmp	r3, r2
 8001722:	d083      	beq.n	800162c <HAL_RCC_ClockConfig+0x24>
 8001724:	f7ff fa14 	bl	8000b50 <HAL_GetTick>
 8001728:	4b1c      	ldr	r3, [pc, #112]	@ (800179c <HAL_RCC_ClockConfig+0x194>)
 800172a:	1bc0      	subs	r0, r0, r7
 800172c:	4298      	cmp	r0, r3
 800172e:	d9f4      	bls.n	800171a <HAL_RCC_ClockConfig+0x112>
 8001730:	e7bc      	b.n	80016ac <HAL_RCC_ClockConfig+0xa4>
 8001732:	2b01      	cmp	r3, #1
 8001734:	d011      	beq.n	800175a <HAL_RCC_ClockConfig+0x152>
 8001736:	220c      	movs	r2, #12
 8001738:	68eb      	ldr	r3, [r5, #12]
 800173a:	4213      	tst	r3, r2
 800173c:	d100      	bne.n	8001740 <HAL_RCC_ClockConfig+0x138>
 800173e:	e775      	b.n	800162c <HAL_RCC_ClockConfig+0x24>
 8001740:	f7ff fa06 	bl	8000b50 <HAL_GetTick>
 8001744:	4b15      	ldr	r3, [pc, #84]	@ (800179c <HAL_RCC_ClockConfig+0x194>)
 8001746:	1bc0      	subs	r0, r0, r7
 8001748:	4298      	cmp	r0, r3
 800174a:	d9f4      	bls.n	8001736 <HAL_RCC_ClockConfig+0x12e>
 800174c:	e7ae      	b.n	80016ac <HAL_RCC_ClockConfig+0xa4>
 800174e:	f7ff f9ff 	bl	8000b50 <HAL_GetTick>
 8001752:	4b12      	ldr	r3, [pc, #72]	@ (800179c <HAL_RCC_ClockConfig+0x194>)
 8001754:	1bc0      	subs	r0, r0, r7
 8001756:	4298      	cmp	r0, r3
 8001758:	d8a8      	bhi.n	80016ac <HAL_RCC_ClockConfig+0xa4>
 800175a:	220c      	movs	r2, #12
 800175c:	68eb      	ldr	r3, [r5, #12]
 800175e:	4013      	ands	r3, r2
 8001760:	2b04      	cmp	r3, #4
 8001762:	d1f4      	bne.n	800174e <HAL_RCC_ClockConfig+0x146>
 8001764:	e762      	b.n	800162c <HAL_RCC_ClockConfig+0x24>
 8001766:	f7ff f9f3 	bl	8000b50 <HAL_GetTick>
 800176a:	4b0c      	ldr	r3, [pc, #48]	@ (800179c <HAL_RCC_ClockConfig+0x194>)
 800176c:	1bc0      	subs	r0, r0, r7
 800176e:	4298      	cmp	r0, r3
 8001770:	d800      	bhi.n	8001774 <HAL_RCC_ClockConfig+0x16c>
 8001772:	e767      	b.n	8001644 <HAL_RCC_ClockConfig+0x3c>
 8001774:	e79a      	b.n	80016ac <HAL_RCC_ClockConfig+0xa4>
 8001776:	68eb      	ldr	r3, [r5, #12]
 8001778:	4909      	ldr	r1, [pc, #36]	@ (80017a0 <HAL_RCC_ClockConfig+0x198>)
 800177a:	400b      	ands	r3, r1
 800177c:	68e1      	ldr	r1, [r4, #12]
 800177e:	430b      	orrs	r3, r1
 8001780:	60eb      	str	r3, [r5, #12]
 8001782:	e768      	b.n	8001656 <HAL_RCC_ClockConfig+0x4e>
 8001784:	40022000 	.word	0x40022000
 8001788:	40021000 	.word	0x40021000
 800178c:	ffffc7ff 	.word	0xffffc7ff
 8001790:	08003fe5 	.word	0x08003fe5
 8001794:	20000000 	.word	0x20000000
 8001798:	20000008 	.word	0x20000008
 800179c:	00001388 	.word	0x00001388
 80017a0:	fffff8ff 	.word	0xfffff8ff

080017a4 <HAL_RCC_GetPCLK1Freq>:
 80017a4:	4b04      	ldr	r3, [pc, #16]	@ (80017b8 <HAL_RCC_GetPCLK1Freq+0x14>)
 80017a6:	4a05      	ldr	r2, [pc, #20]	@ (80017bc <HAL_RCC_GetPCLK1Freq+0x18>)
 80017a8:	68db      	ldr	r3, [r3, #12]
 80017aa:	4905      	ldr	r1, [pc, #20]	@ (80017c0 <HAL_RCC_GetPCLK1Freq+0x1c>)
 80017ac:	055b      	lsls	r3, r3, #21
 80017ae:	0f5b      	lsrs	r3, r3, #29
 80017b0:	5ccb      	ldrb	r3, [r1, r3]
 80017b2:	6810      	ldr	r0, [r2, #0]
 80017b4:	40d8      	lsrs	r0, r3
 80017b6:	4770      	bx	lr
 80017b8:	40021000 	.word	0x40021000
 80017bc:	20000000 	.word	0x20000000
 80017c0:	08003fdd 	.word	0x08003fdd

080017c4 <HAL_RCC_CSSCallback>:
 80017c4:	4770      	bx	lr
	...

080017c8 <HAL_RCC_NMI_IRQHandler>:
 80017c8:	b570      	push	{r4, r5, r6, lr}
 80017ca:	2580      	movs	r5, #128	@ 0x80
 80017cc:	4c04      	ldr	r4, [pc, #16]	@ (80017e0 <HAL_RCC_NMI_IRQHandler+0x18>)
 80017ce:	006d      	lsls	r5, r5, #1
 80017d0:	6963      	ldr	r3, [r4, #20]
 80017d2:	422b      	tst	r3, r5
 80017d4:	d002      	beq.n	80017dc <HAL_RCC_NMI_IRQHandler+0x14>
 80017d6:	f7ff fff5 	bl	80017c4 <HAL_RCC_CSSCallback>
 80017da:	61a5      	str	r5, [r4, #24]
 80017dc:	bd70      	pop	{r4, r5, r6, pc}
 80017de:	46c0      	nop			@ (mov r8, r8)
 80017e0:	40021000 	.word	0x40021000

080017e4 <HAL_RCCEx_PeriphCLKConfig>:
 80017e4:	6803      	ldr	r3, [r0, #0]
 80017e6:	b5f7      	push	{r0, r1, r2, r4, r5, r6, r7, lr}
 80017e8:	0005      	movs	r5, r0
 80017ea:	069b      	lsls	r3, r3, #26
 80017ec:	d52b      	bpl.n	8001846 <HAL_RCCEx_PeriphCLKConfig+0x62>
 80017ee:	2380      	movs	r3, #128	@ 0x80
 80017f0:	2100      	movs	r1, #0
 80017f2:	4c51      	ldr	r4, [pc, #324]	@ (8001938 <HAL_RCCEx_PeriphCLKConfig+0x154>)
 80017f4:	055b      	lsls	r3, r3, #21
 80017f6:	6ba2      	ldr	r2, [r4, #56]	@ 0x38
 80017f8:	9100      	str	r1, [sp, #0]
 80017fa:	421a      	tst	r2, r3
 80017fc:	d104      	bne.n	8001808 <HAL_RCCEx_PeriphCLKConfig+0x24>
 80017fe:	6ba2      	ldr	r2, [r4, #56]	@ 0x38
 8001800:	4313      	orrs	r3, r2
 8001802:	63a3      	str	r3, [r4, #56]	@ 0x38
 8001804:	2301      	movs	r3, #1
 8001806:	9300      	str	r3, [sp, #0]
 8001808:	2780      	movs	r7, #128	@ 0x80
 800180a:	4e4c      	ldr	r6, [pc, #304]	@ (800193c <HAL_RCCEx_PeriphCLKConfig+0x158>)
 800180c:	007f      	lsls	r7, r7, #1
 800180e:	6833      	ldr	r3, [r6, #0]
 8001810:	423b      	tst	r3, r7
 8001812:	d038      	beq.n	8001886 <HAL_RCCEx_PeriphCLKConfig+0xa2>
 8001814:	20c0      	movs	r0, #192	@ 0xc0
 8001816:	22c0      	movs	r2, #192	@ 0xc0
 8001818:	6821      	ldr	r1, [r4, #0]
 800181a:	686b      	ldr	r3, [r5, #4]
 800181c:	0380      	lsls	r0, r0, #14
 800181e:	4059      	eors	r1, r3
 8001820:	0292      	lsls	r2, r2, #10
 8001822:	4201      	tst	r1, r0
 8001824:	d140      	bne.n	80018a8 <HAL_RCCEx_PeriphCLKConfig+0xc4>
 8001826:	6d20      	ldr	r0, [r4, #80]	@ 0x50
 8001828:	6829      	ldr	r1, [r5, #0]
 800182a:	0006      	movs	r6, r0
 800182c:	4016      	ands	r6, r2
 800182e:	4210      	tst	r0, r2
 8001830:	d143      	bne.n	80018ba <HAL_RCCEx_PeriphCLKConfig+0xd6>
 8001832:	682b      	ldr	r3, [r5, #0]
 8001834:	069b      	lsls	r3, r3, #26
 8001836:	d454      	bmi.n	80018e2 <HAL_RCCEx_PeriphCLKConfig+0xfe>
 8001838:	9b00      	ldr	r3, [sp, #0]
 800183a:	2b01      	cmp	r3, #1
 800183c:	d103      	bne.n	8001846 <HAL_RCCEx_PeriphCLKConfig+0x62>
 800183e:	6ba3      	ldr	r3, [r4, #56]	@ 0x38
 8001840:	4a3f      	ldr	r2, [pc, #252]	@ (8001940 <HAL_RCCEx_PeriphCLKConfig+0x15c>)
 8001842:	4013      	ands	r3, r2
 8001844:	63a3      	str	r3, [r4, #56]	@ 0x38
 8001846:	682b      	ldr	r3, [r5, #0]
 8001848:	079a      	lsls	r2, r3, #30
 800184a:	d506      	bpl.n	800185a <HAL_RCCEx_PeriphCLKConfig+0x76>
 800184c:	200c      	movs	r0, #12
 800184e:	493a      	ldr	r1, [pc, #232]	@ (8001938 <HAL_RCCEx_PeriphCLKConfig+0x154>)
 8001850:	6cca      	ldr	r2, [r1, #76]	@ 0x4c
 8001852:	4382      	bics	r2, r0
 8001854:	68a8      	ldr	r0, [r5, #8]
 8001856:	4302      	orrs	r2, r0
 8001858:	64ca      	str	r2, [r1, #76]	@ 0x4c
 800185a:	075a      	lsls	r2, r3, #29
 800185c:	d506      	bpl.n	800186c <HAL_RCCEx_PeriphCLKConfig+0x88>
 800185e:	4936      	ldr	r1, [pc, #216]	@ (8001938 <HAL_RCCEx_PeriphCLKConfig+0x154>)
 8001860:	4838      	ldr	r0, [pc, #224]	@ (8001944 <HAL_RCCEx_PeriphCLKConfig+0x160>)
 8001862:	6cca      	ldr	r2, [r1, #76]	@ 0x4c
 8001864:	4002      	ands	r2, r0
 8001866:	68e8      	ldr	r0, [r5, #12]
 8001868:	4302      	orrs	r2, r0
 800186a:	64ca      	str	r2, [r1, #76]	@ 0x4c
 800186c:	071a      	lsls	r2, r3, #28
 800186e:	d506      	bpl.n	800187e <HAL_RCCEx_PeriphCLKConfig+0x9a>
 8001870:	4931      	ldr	r1, [pc, #196]	@ (8001938 <HAL_RCCEx_PeriphCLKConfig+0x154>)
 8001872:	4835      	ldr	r0, [pc, #212]	@ (8001948 <HAL_RCCEx_PeriphCLKConfig+0x164>)
 8001874:	6cca      	ldr	r2, [r1, #76]	@ 0x4c
 8001876:	4002      	ands	r2, r0
 8001878:	6928      	ldr	r0, [r5, #16]
 800187a:	4302      	orrs	r2, r0
 800187c:	64ca      	str	r2, [r1, #76]	@ 0x4c
 800187e:	061b      	lsls	r3, r3, #24
 8001880:	d452      	bmi.n	8001928 <HAL_RCCEx_PeriphCLKConfig+0x144>
 8001882:	2000      	movs	r0, #0
 8001884:	e00f      	b.n	80018a6 <HAL_RCCEx_PeriphCLKConfig+0xc2>
 8001886:	6833      	ldr	r3, [r6, #0]
 8001888:	433b      	orrs	r3, r7
 800188a:	6033      	str	r3, [r6, #0]
 800188c:	f7ff f960 	bl	8000b50 <HAL_GetTick>
 8001890:	9001      	str	r0, [sp, #4]
 8001892:	6833      	ldr	r3, [r6, #0]
 8001894:	423b      	tst	r3, r7
 8001896:	d1bd      	bne.n	8001814 <HAL_RCCEx_PeriphCLKConfig+0x30>
 8001898:	f7ff f95a 	bl	8000b50 <HAL_GetTick>
 800189c:	9b01      	ldr	r3, [sp, #4]
 800189e:	1ac0      	subs	r0, r0, r3
 80018a0:	2864      	cmp	r0, #100	@ 0x64
 80018a2:	d9f6      	bls.n	8001892 <HAL_RCCEx_PeriphCLKConfig+0xae>
 80018a4:	2003      	movs	r0, #3
 80018a6:	bdfe      	pop	{r1, r2, r3, r4, r5, r6, r7, pc}
 80018a8:	0019      	movs	r1, r3
 80018aa:	4011      	ands	r1, r2
 80018ac:	4291      	cmp	r1, r2
 80018ae:	d1ba      	bne.n	8001826 <HAL_RCCEx_PeriphCLKConfig+0x42>
 80018b0:	6821      	ldr	r1, [r4, #0]
 80018b2:	2001      	movs	r0, #1
 80018b4:	0389      	lsls	r1, r1, #14
 80018b6:	d5b6      	bpl.n	8001826 <HAL_RCCEx_PeriphCLKConfig+0x42>
 80018b8:	e7f5      	b.n	80018a6 <HAL_RCCEx_PeriphCLKConfig+0xc2>
 80018ba:	4013      	ands	r3, r2
 80018bc:	42b3      	cmp	r3, r6
 80018be:	d0b8      	beq.n	8001832 <HAL_RCCEx_PeriphCLKConfig+0x4e>
 80018c0:	0689      	lsls	r1, r1, #26
 80018c2:	d5b9      	bpl.n	8001838 <HAL_RCCEx_PeriphCLKConfig+0x54>
 80018c4:	2180      	movs	r1, #128	@ 0x80
 80018c6:	6d23      	ldr	r3, [r4, #80]	@ 0x50
 80018c8:	6d20      	ldr	r0, [r4, #80]	@ 0x50
 80018ca:	0309      	lsls	r1, r1, #12
 80018cc:	4301      	orrs	r1, r0
 80018ce:	6521      	str	r1, [r4, #80]	@ 0x50
 80018d0:	6d21      	ldr	r1, [r4, #80]	@ 0x50
 80018d2:	4a1e      	ldr	r2, [pc, #120]	@ (800194c <HAL_RCCEx_PeriphCLKConfig+0x168>)
 80018d4:	481e      	ldr	r0, [pc, #120]	@ (8001950 <HAL_RCCEx_PeriphCLKConfig+0x16c>)
 80018d6:	401a      	ands	r2, r3
 80018d8:	4001      	ands	r1, r0
 80018da:	6521      	str	r1, [r4, #80]	@ 0x50
 80018dc:	6522      	str	r2, [r4, #80]	@ 0x50
 80018de:	05db      	lsls	r3, r3, #23
 80018e0:	d412      	bmi.n	8001908 <HAL_RCCEx_PeriphCLKConfig+0x124>
 80018e2:	6869      	ldr	r1, [r5, #4]
 80018e4:	23c0      	movs	r3, #192	@ 0xc0
 80018e6:	000a      	movs	r2, r1
 80018e8:	029b      	lsls	r3, r3, #10
 80018ea:	401a      	ands	r2, r3
 80018ec:	429a      	cmp	r2, r3
 80018ee:	d107      	bne.n	8001900 <HAL_RCCEx_PeriphCLKConfig+0x11c>
 80018f0:	6823      	ldr	r3, [r4, #0]
 80018f2:	4818      	ldr	r0, [pc, #96]	@ (8001954 <HAL_RCCEx_PeriphCLKConfig+0x170>)
 80018f4:	4003      	ands	r3, r0
 80018f6:	20c0      	movs	r0, #192	@ 0xc0
 80018f8:	0380      	lsls	r0, r0, #14
 80018fa:	4001      	ands	r1, r0
 80018fc:	430b      	orrs	r3, r1
 80018fe:	6023      	str	r3, [r4, #0]
 8001900:	6d23      	ldr	r3, [r4, #80]	@ 0x50
 8001902:	431a      	orrs	r2, r3
 8001904:	6522      	str	r2, [r4, #80]	@ 0x50
 8001906:	e797      	b.n	8001838 <HAL_RCCEx_PeriphCLKConfig+0x54>
 8001908:	f7ff f922 	bl	8000b50 <HAL_GetTick>
 800190c:	2780      	movs	r7, #128	@ 0x80
 800190e:	0006      	movs	r6, r0
 8001910:	00bf      	lsls	r7, r7, #2
 8001912:	6d23      	ldr	r3, [r4, #80]	@ 0x50
 8001914:	423b      	tst	r3, r7
 8001916:	d000      	beq.n	800191a <HAL_RCCEx_PeriphCLKConfig+0x136>
 8001918:	e78b      	b.n	8001832 <HAL_RCCEx_PeriphCLKConfig+0x4e>
 800191a:	f7ff f919 	bl	8000b50 <HAL_GetTick>
 800191e:	4b0e      	ldr	r3, [pc, #56]	@ (8001958 <HAL_RCCEx_PeriphCLKConfig+0x174>)
 8001920:	1b80      	subs	r0, r0, r6
 8001922:	4298      	cmp	r0, r3
 8001924:	d9f5      	bls.n	8001912 <HAL_RCCEx_PeriphCLKConfig+0x12e>
 8001926:	e7bd      	b.n	80018a4 <HAL_RCCEx_PeriphCLKConfig+0xc0>
 8001928:	4a03      	ldr	r2, [pc, #12]	@ (8001938 <HAL_RCCEx_PeriphCLKConfig+0x154>)
 800192a:	490c      	ldr	r1, [pc, #48]	@ (800195c <HAL_RCCEx_PeriphCLKConfig+0x178>)
 800192c:	6cd3      	ldr	r3, [r2, #76]	@ 0x4c
 800192e:	400b      	ands	r3, r1
 8001930:	6969      	ldr	r1, [r5, #20]
 8001932:	430b      	orrs	r3, r1
 8001934:	64d3      	str	r3, [r2, #76]	@ 0x4c
 8001936:	e7a4      	b.n	8001882 <HAL_RCCEx_PeriphCLKConfig+0x9e>
 8001938:	40021000 	.word	0x40021000
 800193c:	40007000 	.word	0x40007000
 8001940:	efffffff 	.word	0xefffffff
 8001944:	fffff3ff 	.word	0xfffff3ff
 8001948:	ffffcfff 	.word	0xffffcfff
 800194c:	fffcffff 	.word	0xfffcffff
 8001950:	fff7ffff 	.word	0xfff7ffff
 8001954:	ffcfffff 	.word	0xffcfffff
 8001958:	00001388 	.word	0x00001388
 800195c:	fff3ffff 	.word	0xfff3ffff

08001960 <TIM_Base_SetConfig>:
 8001960:	2280      	movs	r2, #128	@ 0x80
 8001962:	6803      	ldr	r3, [r0, #0]
 8001964:	05d2      	lsls	r2, r2, #23
 8001966:	4290      	cmp	r0, r2
 8001968:	d005      	beq.n	8001976 <TIM_Base_SetConfig+0x16>
 800196a:	4a0f      	ldr	r2, [pc, #60]	@ (80019a8 <TIM_Base_SetConfig+0x48>)
 800196c:	4290      	cmp	r0, r2
 800196e:	d002      	beq.n	8001976 <TIM_Base_SetConfig+0x16>
 8001970:	4a0e      	ldr	r2, [pc, #56]	@ (80019ac <TIM_Base_SetConfig+0x4c>)
 8001972:	4290      	cmp	r0, r2
 8001974:	d107      	bne.n	8001986 <TIM_Base_SetConfig+0x26>
 8001976:	2270      	movs	r2, #112	@ 0x70
 8001978:	4393      	bics	r3, r2
 800197a:	684a      	ldr	r2, [r1, #4]
 800197c:	4313      	orrs	r3, r2
 800197e:	4a0c      	ldr	r2, [pc, #48]	@ (80019b0 <TIM_Base_SetConfig+0x50>)
 8001980:	4013      	ands	r3, r2
 8001982:	68ca      	ldr	r2, [r1, #12]
 8001984:	4313      	orrs	r3, r2
 8001986:	2280      	movs	r2, #128	@ 0x80
 8001988:	4393      	bics	r3, r2
 800198a:	690a      	ldr	r2, [r1, #16]
 800198c:	4313      	orrs	r3, r2
 800198e:	688a      	ldr	r2, [r1, #8]
 8001990:	62c2      	str	r2, [r0, #44]	@ 0x2c
 8001992:	680a      	ldr	r2, [r1, #0]
 8001994:	6282      	str	r2, [r0, #40]	@ 0x28
 8001996:	2204      	movs	r2, #4
 8001998:	6801      	ldr	r1, [r0, #0]
 800199a:	430a      	orrs	r2, r1
 800199c:	6002      	str	r2, [r0, #0]
 800199e:	2201      	movs	r2, #1
 80019a0:	6142      	str	r2, [r0, #20]
 80019a2:	6003      	str	r3, [r0, #0]
 80019a4:	4770      	bx	lr
 80019a6:	46c0      	nop			@ (mov r8, r8)
 80019a8:	40010800 	.word	0x40010800
 80019ac:	40011400 	.word	0x40011400
 80019b0:	fffffcff 	.word	0xfffffcff

080019b4 <TIM_OC1_SetConfig>:
 80019b4:	b530      	push	{r4, r5, lr}
 80019b6:	2401      	movs	r4, #1
 80019b8:	2573      	movs	r5, #115	@ 0x73
 80019ba:	6a03      	ldr	r3, [r0, #32]
 80019bc:	6a02      	ldr	r2, [r0, #32]
 80019be:	43a2      	bics	r2, r4
 80019c0:	6202      	str	r2, [r0, #32]
 80019c2:	6844      	ldr	r4, [r0, #4]
 80019c4:	6982      	ldr	r2, [r0, #24]
 80019c6:	43aa      	bics	r2, r5
 80019c8:	680d      	ldr	r5, [r1, #0]
 80019ca:	432a      	orrs	r2, r5
 80019cc:	2502      	movs	r5, #2
 80019ce:	43ab      	bics	r3, r5
 80019d0:	688d      	ldr	r5, [r1, #8]
 80019d2:	6044      	str	r4, [r0, #4]
 80019d4:	6182      	str	r2, [r0, #24]
 80019d6:	684a      	ldr	r2, [r1, #4]
 80019d8:	432b      	orrs	r3, r5
 80019da:	6342      	str	r2, [r0, #52]	@ 0x34
 80019dc:	6203      	str	r3, [r0, #32]
 80019de:	bd30      	pop	{r4, r5, pc}

080019e0 <TIM_OC2_SetConfig>:
 80019e0:	2210      	movs	r2, #16
 80019e2:	b530      	push	{r4, r5, lr}
 80019e4:	6a04      	ldr	r4, [r0, #32]
 80019e6:	6a03      	ldr	r3, [r0, #32]
 80019e8:	4393      	bics	r3, r2
 80019ea:	6203      	str	r3, [r0, #32]
 80019ec:	6845      	ldr	r5, [r0, #4]
 80019ee:	4a08      	ldr	r2, [pc, #32]	@ (8001a10 <TIM_OC2_SetConfig+0x30>)
 80019f0:	6983      	ldr	r3, [r0, #24]
 80019f2:	4013      	ands	r3, r2
 80019f4:	680a      	ldr	r2, [r1, #0]
 80019f6:	0212      	lsls	r2, r2, #8
 80019f8:	431a      	orrs	r2, r3
 80019fa:	2320      	movs	r3, #32
 80019fc:	439c      	bics	r4, r3
 80019fe:	688b      	ldr	r3, [r1, #8]
 8001a00:	6045      	str	r5, [r0, #4]
 8001a02:	011b      	lsls	r3, r3, #4
 8001a04:	6182      	str	r2, [r0, #24]
 8001a06:	684a      	ldr	r2, [r1, #4]
 8001a08:	4323      	orrs	r3, r4
 8001a0a:	6382      	str	r2, [r0, #56]	@ 0x38
 8001a0c:	6203      	str	r3, [r0, #32]
 8001a0e:	bd30      	pop	{r4, r5, pc}
 8001a10:	ffff8cff 	.word	0xffff8cff

08001a14 <TIM_CCxChannelCmd>:
 8001a14:	231f      	movs	r3, #31
 8001a16:	b510      	push	{r4, lr}
 8001a18:	2401      	movs	r4, #1
 8001a1a:	4019      	ands	r1, r3
 8001a1c:	408c      	lsls	r4, r1
 8001a1e:	408a      	lsls	r2, r1
 8001a20:	6a03      	ldr	r3, [r0, #32]
 8001a22:	43a3      	bics	r3, r4
 8001a24:	6203      	str	r3, [r0, #32]
 8001a26:	6a03      	ldr	r3, [r0, #32]
 8001a28:	431a      	orrs	r2, r3
 8001a2a:	6202      	str	r2, [r0, #32]
 8001a2c:	bd10      	pop	{r4, pc}

08001a2e <HAL_TIM_Base_Init>:
 8001a2e:	b570      	push	{r4, r5, r6, lr}
 8001a30:	0004      	movs	r4, r0
 8001a32:	2001      	movs	r0, #1
 8001a34:	2c00      	cmp	r4, #0
 8001a36:	d01d      	beq.n	8001a74 <HAL_TIM_Base_Init+0x46>
 8001a38:	0025      	movs	r5, r4
 8001a3a:	3539      	adds	r5, #57	@ 0x39
 8001a3c:	782b      	ldrb	r3, [r5, #0]
 8001a3e:	b2da      	uxtb	r2, r3
 8001a40:	2b00      	cmp	r3, #0
 8001a42:	d105      	bne.n	8001a50 <HAL_TIM_Base_Init+0x22>
 8001a44:	0023      	movs	r3, r4
 8001a46:	3338      	adds	r3, #56	@ 0x38
 8001a48:	0020      	movs	r0, r4
 8001a4a:	701a      	strb	r2, [r3, #0]
 8001a4c:	f7fe ff6a 	bl	8000924 <HAL_TIM_Base_MspInit>
 8001a50:	2302      	movs	r3, #2
 8001a52:	702b      	strb	r3, [r5, #0]
 8001a54:	6820      	ldr	r0, [r4, #0]
 8001a56:	1d21      	adds	r1, r4, #4
 8001a58:	f7ff ff82 	bl	8001960 <TIM_Base_SetConfig>
 8001a5c:	0022      	movs	r2, r4
 8001a5e:	2301      	movs	r3, #1
 8001a60:	2000      	movs	r0, #0
 8001a62:	323e      	adds	r2, #62	@ 0x3e
 8001a64:	7013      	strb	r3, [r2, #0]
 8001a66:	343d      	adds	r4, #61	@ 0x3d
 8001a68:	3a04      	subs	r2, #4
 8001a6a:	7013      	strb	r3, [r2, #0]
 8001a6c:	7053      	strb	r3, [r2, #1]
 8001a6e:	7093      	strb	r3, [r2, #2]
 8001a70:	7023      	strb	r3, [r4, #0]
 8001a72:	702b      	strb	r3, [r5, #0]
 8001a74:	bd70      	pop	{r4, r5, r6, pc}
	...

08001a78 <HAL_TIM_OC_Start_DMA>:
 8001a78:	b570      	push	{r4, r5, r6, lr}
 8001a7a:	000e      	movs	r6, r1
 8001a7c:	0005      	movs	r5, r0
 8001a7e:	0011      	movs	r1, r2
 8001a80:	0002      	movs	r2, r0
 8001a82:	2e00      	cmp	r6, #0
 8001a84:	d109      	bne.n	8001a9a <HAL_TIM_OC_Start_DMA+0x22>
 8001a86:	323a      	adds	r2, #58	@ 0x3a
 8001a88:	7814      	ldrb	r4, [r2, #0]
 8001a8a:	2002      	movs	r0, #2
 8001a8c:	3c02      	subs	r4, #2
 8001a8e:	4262      	negs	r2, r4
 8001a90:	4154      	adcs	r4, r2
 8001a92:	b2e4      	uxtb	r4, r4
 8001a94:	2c00      	cmp	r4, #0
 8001a96:	d00a      	beq.n	8001aae <HAL_TIM_OC_Start_DMA+0x36>
 8001a98:	bd70      	pop	{r4, r5, r6, pc}
 8001a9a:	2e04      	cmp	r6, #4
 8001a9c:	d101      	bne.n	8001aa2 <HAL_TIM_OC_Start_DMA+0x2a>
 8001a9e:	323b      	adds	r2, #59	@ 0x3b
 8001aa0:	e7f2      	b.n	8001a88 <HAL_TIM_OC_Start_DMA+0x10>
 8001aa2:	2e08      	cmp	r6, #8
 8001aa4:	d101      	bne.n	8001aaa <HAL_TIM_OC_Start_DMA+0x32>
 8001aa6:	323c      	adds	r2, #60	@ 0x3c
 8001aa8:	e7ee      	b.n	8001a88 <HAL_TIM_OC_Start_DMA+0x10>
 8001aaa:	323d      	adds	r2, #61	@ 0x3d
 8001aac:	e7ec      	b.n	8001a88 <HAL_TIM_OC_Start_DMA+0x10>
 8001aae:	002a      	movs	r2, r5
 8001ab0:	2e00      	cmp	r6, #0
 8001ab2:	d109      	bne.n	8001ac8 <HAL_TIM_OC_Start_DMA+0x50>
 8001ab4:	323a      	adds	r2, #58	@ 0x3a
 8001ab6:	7812      	ldrb	r2, [r2, #0]
 8001ab8:	3a01      	subs	r2, #1
 8001aba:	4250      	negs	r0, r2
 8001abc:	4142      	adcs	r2, r0
 8001abe:	b2d2      	uxtb	r2, r2
 8001ac0:	2a00      	cmp	r2, #0
 8001ac2:	d10b      	bne.n	8001adc <HAL_TIM_OC_Start_DMA+0x64>
 8001ac4:	2001      	movs	r0, #1
 8001ac6:	e7e7      	b.n	8001a98 <HAL_TIM_OC_Start_DMA+0x20>
 8001ac8:	2e04      	cmp	r6, #4
 8001aca:	d101      	bne.n	8001ad0 <HAL_TIM_OC_Start_DMA+0x58>
 8001acc:	323b      	adds	r2, #59	@ 0x3b
 8001ace:	e7f2      	b.n	8001ab6 <HAL_TIM_OC_Start_DMA+0x3e>
 8001ad0:	2e08      	cmp	r6, #8
 8001ad2:	d101      	bne.n	8001ad8 <HAL_TIM_OC_Start_DMA+0x60>
 8001ad4:	323c      	adds	r2, #60	@ 0x3c
 8001ad6:	e7ee      	b.n	8001ab6 <HAL_TIM_OC_Start_DMA+0x3e>
 8001ad8:	323d      	adds	r2, #61	@ 0x3d
 8001ada:	e7ec      	b.n	8001ab6 <HAL_TIM_OC_Start_DMA+0x3e>
 8001adc:	2900      	cmp	r1, #0
 8001ade:	d0f1      	beq.n	8001ac4 <HAL_TIM_OC_Start_DMA+0x4c>
 8001ae0:	2b00      	cmp	r3, #0
 8001ae2:	d0ef      	beq.n	8001ac4 <HAL_TIM_OC_Start_DMA+0x4c>
 8001ae4:	2202      	movs	r2, #2
 8001ae6:	0028      	movs	r0, r5
 8001ae8:	2e00      	cmp	r6, #0
 8001aea:	d12f      	bne.n	8001b4c <HAL_TIM_OC_Start_DMA+0xd4>
 8001aec:	303a      	adds	r0, #58	@ 0x3a
 8001aee:	7002      	strb	r2, [r0, #0]
 8001af0:	6a28      	ldr	r0, [r5, #32]
 8001af2:	4a38      	ldr	r2, [pc, #224]	@ (8001bd4 <HAL_TIM_OC_Start_DMA+0x15c>)
 8001af4:	62c2      	str	r2, [r0, #44]	@ 0x2c
 8001af6:	4a38      	ldr	r2, [pc, #224]	@ (8001bd8 <HAL_TIM_OC_Start_DMA+0x160>)
 8001af8:	6302      	str	r2, [r0, #48]	@ 0x30
 8001afa:	4a38      	ldr	r2, [pc, #224]	@ (8001bdc <HAL_TIM_OC_Start_DMA+0x164>)
 8001afc:	6342      	str	r2, [r0, #52]	@ 0x34
 8001afe:	682a      	ldr	r2, [r5, #0]
 8001b00:	3234      	adds	r2, #52	@ 0x34
 8001b02:	f7ff f8bf 	bl	8000c84 <HAL_DMA_Start_IT>
 8001b06:	2800      	cmp	r0, #0
 8001b08:	d1dc      	bne.n	8001ac4 <HAL_TIM_OC_Start_DMA+0x4c>
 8001b0a:	2380      	movs	r3, #128	@ 0x80
 8001b0c:	682a      	ldr	r2, [r5, #0]
 8001b0e:	009b      	lsls	r3, r3, #2
 8001b10:	68d1      	ldr	r1, [r2, #12]
 8001b12:	682c      	ldr	r4, [r5, #0]
 8001b14:	430b      	orrs	r3, r1
 8001b16:	60d3      	str	r3, [r2, #12]
 8001b18:	0031      	movs	r1, r6
 8001b1a:	2201      	movs	r2, #1
 8001b1c:	0020      	movs	r0, r4
 8001b1e:	f7ff ff79 	bl	8001a14 <TIM_CCxChannelCmd>
 8001b22:	2380      	movs	r3, #128	@ 0x80
 8001b24:	05db      	lsls	r3, r3, #23
 8001b26:	429c      	cmp	r4, r3
 8001b28:	d005      	beq.n	8001b36 <HAL_TIM_OC_Start_DMA+0xbe>
 8001b2a:	4b2d      	ldr	r3, [pc, #180]	@ (8001be0 <HAL_TIM_OC_Start_DMA+0x168>)
 8001b2c:	429c      	cmp	r4, r3
 8001b2e:	d002      	beq.n	8001b36 <HAL_TIM_OC_Start_DMA+0xbe>
 8001b30:	4b2c      	ldr	r3, [pc, #176]	@ (8001be4 <HAL_TIM_OC_Start_DMA+0x16c>)
 8001b32:	429c      	cmp	r4, r3
 8001b34:	d104      	bne.n	8001b40 <HAL_TIM_OC_Start_DMA+0xc8>
 8001b36:	2207      	movs	r2, #7
 8001b38:	68a3      	ldr	r3, [r4, #8]
 8001b3a:	4013      	ands	r3, r2
 8001b3c:	2b06      	cmp	r3, #6
 8001b3e:	d003      	beq.n	8001b48 <HAL_TIM_OC_Start_DMA+0xd0>
 8001b40:	2301      	movs	r3, #1
 8001b42:	6822      	ldr	r2, [r4, #0]
 8001b44:	4313      	orrs	r3, r2
 8001b46:	6023      	str	r3, [r4, #0]
 8001b48:	2000      	movs	r0, #0
 8001b4a:	e7a5      	b.n	8001a98 <HAL_TIM_OC_Start_DMA+0x20>
 8001b4c:	2e04      	cmp	r6, #4
 8001b4e:	d113      	bne.n	8001b78 <HAL_TIM_OC_Start_DMA+0x100>
 8001b50:	303b      	adds	r0, #59	@ 0x3b
 8001b52:	7002      	strb	r2, [r0, #0]
 8001b54:	6a68      	ldr	r0, [r5, #36]	@ 0x24
 8001b56:	4a1f      	ldr	r2, [pc, #124]	@ (8001bd4 <HAL_TIM_OC_Start_DMA+0x15c>)
 8001b58:	62c2      	str	r2, [r0, #44]	@ 0x2c
 8001b5a:	4a1f      	ldr	r2, [pc, #124]	@ (8001bd8 <HAL_TIM_OC_Start_DMA+0x160>)
 8001b5c:	6302      	str	r2, [r0, #48]	@ 0x30
 8001b5e:	4a1f      	ldr	r2, [pc, #124]	@ (8001bdc <HAL_TIM_OC_Start_DMA+0x164>)
 8001b60:	6342      	str	r2, [r0, #52]	@ 0x34
 8001b62:	682a      	ldr	r2, [r5, #0]
 8001b64:	3238      	adds	r2, #56	@ 0x38
 8001b66:	f7ff f88d 	bl	8000c84 <HAL_DMA_Start_IT>
 8001b6a:	2800      	cmp	r0, #0
 8001b6c:	d1aa      	bne.n	8001ac4 <HAL_TIM_OC_Start_DMA+0x4c>
 8001b6e:	2380      	movs	r3, #128	@ 0x80
 8001b70:	682a      	ldr	r2, [r5, #0]
 8001b72:	00db      	lsls	r3, r3, #3
 8001b74:	68d1      	ldr	r1, [r2, #12]
 8001b76:	e7cc      	b.n	8001b12 <HAL_TIM_OC_Start_DMA+0x9a>
 8001b78:	2e08      	cmp	r6, #8
 8001b7a:	d113      	bne.n	8001ba4 <HAL_TIM_OC_Start_DMA+0x12c>
 8001b7c:	303c      	adds	r0, #60	@ 0x3c
 8001b7e:	7002      	strb	r2, [r0, #0]
 8001b80:	6aa8      	ldr	r0, [r5, #40]	@ 0x28
 8001b82:	4a14      	ldr	r2, [pc, #80]	@ (8001bd4 <HAL_TIM_OC_Start_DMA+0x15c>)
 8001b84:	62c2      	str	r2, [r0, #44]	@ 0x2c
 8001b86:	4a14      	ldr	r2, [pc, #80]	@ (8001bd8 <HAL_TIM_OC_Start_DMA+0x160>)
 8001b88:	6302      	str	r2, [r0, #48]	@ 0x30
 8001b8a:	4a14      	ldr	r2, [pc, #80]	@ (8001bdc <HAL_TIM_OC_Start_DMA+0x164>)
 8001b8c:	6342      	str	r2, [r0, #52]	@ 0x34
 8001b8e:	682a      	ldr	r2, [r5, #0]
 8001b90:	323c      	adds	r2, #60	@ 0x3c
 8001b92:	f7ff f877 	bl	8000c84 <HAL_DMA_Start_IT>
 8001b96:	2800      	cmp	r0, #0
 8001b98:	d194      	bne.n	8001ac4 <HAL_TIM_OC_Start_DMA+0x4c>
 8001b9a:	2380      	movs	r3, #128	@ 0x80
 8001b9c:	682a      	ldr	r2, [r5, #0]
 8001b9e:	011b      	lsls	r3, r3, #4
 8001ba0:	68d1      	ldr	r1, [r2, #12]
 8001ba2:	e7b6      	b.n	8001b12 <HAL_TIM_OC_Start_DMA+0x9a>
 8001ba4:	303d      	adds	r0, #61	@ 0x3d
 8001ba6:	7002      	strb	r2, [r0, #0]
 8001ba8:	2e0c      	cmp	r6, #12
 8001baa:	d18b      	bne.n	8001ac4 <HAL_TIM_OC_Start_DMA+0x4c>
 8001bac:	6ae8      	ldr	r0, [r5, #44]	@ 0x2c
 8001bae:	4a09      	ldr	r2, [pc, #36]	@ (8001bd4 <HAL_TIM_OC_Start_DMA+0x15c>)
 8001bb0:	62c2      	str	r2, [r0, #44]	@ 0x2c
 8001bb2:	4a09      	ldr	r2, [pc, #36]	@ (8001bd8 <HAL_TIM_OC_Start_DMA+0x160>)
 8001bb4:	6302      	str	r2, [r0, #48]	@ 0x30
 8001bb6:	4a09      	ldr	r2, [pc, #36]	@ (8001bdc <HAL_TIM_OC_Start_DMA+0x164>)
 8001bb8:	6342      	str	r2, [r0, #52]	@ 0x34
 8001bba:	682a      	ldr	r2, [r5, #0]
 8001bbc:	3240      	adds	r2, #64	@ 0x40
 8001bbe:	f7ff f861 	bl	8000c84 <HAL_DMA_Start_IT>
 8001bc2:	2800      	cmp	r0, #0
 8001bc4:	d000      	beq.n	8001bc8 <HAL_TIM_OC_Start_DMA+0x150>
 8001bc6:	e77d      	b.n	8001ac4 <HAL_TIM_OC_Start_DMA+0x4c>
 8001bc8:	2380      	movs	r3, #128	@ 0x80
 8001bca:	682a      	ldr	r2, [r5, #0]
 8001bcc:	015b      	lsls	r3, r3, #5
 8001bce:	68d1      	ldr	r1, [r2, #12]
 8001bd0:	e79f      	b.n	8001b12 <HAL_TIM_OC_Start_DMA+0x9a>
 8001bd2:	46c0      	nop			@ (mov r8, r8)
 8001bd4:	08001f4d 	.word	0x08001f4d
 8001bd8:	08001fbf 	.word	0x08001fbf
 8001bdc:	08001ff9 	.word	0x08001ff9
 8001be0:	40010800 	.word	0x40010800
 8001be4:	40011400 	.word	0x40011400

08001be8 <HAL_TIM_OC_Stop_DMA>:
 8001be8:	b570      	push	{r4, r5, r6, lr}
 8001bea:	0004      	movs	r4, r0
 8001bec:	000d      	movs	r5, r1
 8001bee:	2908      	cmp	r1, #8
 8001bf0:	d033      	beq.n	8001c5a <HAL_TIM_OC_Stop_DMA+0x72>
 8001bf2:	d805      	bhi.n	8001c00 <HAL_TIM_OC_Stop_DMA+0x18>
 8001bf4:	2900      	cmp	r1, #0
 8001bf6:	d00c      	beq.n	8001c12 <HAL_TIM_OC_Stop_DMA+0x2a>
 8001bf8:	2904      	cmp	r1, #4
 8001bfa:	d027      	beq.n	8001c4c <HAL_TIM_OC_Stop_DMA+0x64>
 8001bfc:	2001      	movs	r0, #1
 8001bfe:	bd70      	pop	{r4, r5, r6, pc}
 8001c00:	290c      	cmp	r1, #12
 8001c02:	d1fb      	bne.n	8001bfc <HAL_TIM_OC_Stop_DMA+0x14>
 8001c04:	6802      	ldr	r2, [r0, #0]
 8001c06:	491d      	ldr	r1, [pc, #116]	@ (8001c7c <HAL_TIM_OC_Stop_DMA+0x94>)
 8001c08:	68d3      	ldr	r3, [r2, #12]
 8001c0a:	6ac0      	ldr	r0, [r0, #44]	@ 0x2c
 8001c0c:	400b      	ands	r3, r1
 8001c0e:	60d3      	str	r3, [r2, #12]
 8001c10:	e005      	b.n	8001c1e <HAL_TIM_OC_Stop_DMA+0x36>
 8001c12:	6802      	ldr	r2, [r0, #0]
 8001c14:	491a      	ldr	r1, [pc, #104]	@ (8001c80 <HAL_TIM_OC_Stop_DMA+0x98>)
 8001c16:	68d3      	ldr	r3, [r2, #12]
 8001c18:	6a00      	ldr	r0, [r0, #32]
 8001c1a:	400b      	ands	r3, r1
 8001c1c:	60d3      	str	r3, [r2, #12]
 8001c1e:	f7ff f88f 	bl	8000d40 <HAL_DMA_Abort_IT>
 8001c22:	6826      	ldr	r6, [r4, #0]
 8001c24:	2200      	movs	r2, #0
 8001c26:	0029      	movs	r1, r5
 8001c28:	0030      	movs	r0, r6
 8001c2a:	f7ff fef3 	bl	8001a14 <TIM_CCxChannelCmd>
 8001c2e:	6a32      	ldr	r2, [r6, #32]
 8001c30:	4b14      	ldr	r3, [pc, #80]	@ (8001c84 <HAL_TIM_OC_Stop_DMA+0x9c>)
 8001c32:	421a      	tst	r2, r3
 8001c34:	d103      	bne.n	8001c3e <HAL_TIM_OC_Stop_DMA+0x56>
 8001c36:	2201      	movs	r2, #1
 8001c38:	6833      	ldr	r3, [r6, #0]
 8001c3a:	4393      	bics	r3, r2
 8001c3c:	6033      	str	r3, [r6, #0]
 8001c3e:	2301      	movs	r3, #1
 8001c40:	2d00      	cmp	r5, #0
 8001c42:	d111      	bne.n	8001c68 <HAL_TIM_OC_Stop_DMA+0x80>
 8001c44:	343a      	adds	r4, #58	@ 0x3a
 8001c46:	2000      	movs	r0, #0
 8001c48:	7023      	strb	r3, [r4, #0]
 8001c4a:	e7d8      	b.n	8001bfe <HAL_TIM_OC_Stop_DMA+0x16>
 8001c4c:	6802      	ldr	r2, [r0, #0]
 8001c4e:	490e      	ldr	r1, [pc, #56]	@ (8001c88 <HAL_TIM_OC_Stop_DMA+0xa0>)
 8001c50:	68d3      	ldr	r3, [r2, #12]
 8001c52:	6a40      	ldr	r0, [r0, #36]	@ 0x24
 8001c54:	400b      	ands	r3, r1
 8001c56:	60d3      	str	r3, [r2, #12]
 8001c58:	e7e1      	b.n	8001c1e <HAL_TIM_OC_Stop_DMA+0x36>
 8001c5a:	6802      	ldr	r2, [r0, #0]
 8001c5c:	490b      	ldr	r1, [pc, #44]	@ (8001c8c <HAL_TIM_OC_Stop_DMA+0xa4>)
 8001c5e:	68d3      	ldr	r3, [r2, #12]
 8001c60:	6a80      	ldr	r0, [r0, #40]	@ 0x28
 8001c62:	400b      	ands	r3, r1
 8001c64:	60d3      	str	r3, [r2, #12]
 8001c66:	e7da      	b.n	8001c1e <HAL_TIM_OC_Stop_DMA+0x36>
 8001c68:	2d04      	cmp	r5, #4
 8001c6a:	d101      	bne.n	8001c70 <HAL_TIM_OC_Stop_DMA+0x88>
 8001c6c:	343b      	adds	r4, #59	@ 0x3b
 8001c6e:	e7ea      	b.n	8001c46 <HAL_TIM_OC_Stop_DMA+0x5e>
 8001c70:	2d08      	cmp	r5, #8
 8001c72:	d101      	bne.n	8001c78 <HAL_TIM_OC_Stop_DMA+0x90>
 8001c74:	343c      	adds	r4, #60	@ 0x3c
 8001c76:	e7e6      	b.n	8001c46 <HAL_TIM_OC_Stop_DMA+0x5e>
 8001c78:	343d      	adds	r4, #61	@ 0x3d
 8001c7a:	e7e4      	b.n	8001c46 <HAL_TIM_OC_Stop_DMA+0x5e>
 8001c7c:	ffffefff 	.word	0xffffefff
 8001c80:	fffffdff 	.word	0xfffffdff
 8001c84:	00001111 	.word	0x00001111
 8001c88:	fffffbff 	.word	0xfffffbff
 8001c8c:	fffff7ff 	.word	0xfffff7ff

08001c90 <HAL_TIM_PWM_MspInit>:
 8001c90:	4770      	bx	lr

08001c92 <HAL_TIM_PWM_Init>:
 8001c92:	b570      	push	{r4, r5, r6, lr}
 8001c94:	0004      	movs	r4, r0
 8001c96:	2001      	movs	r0, #1
 8001c98:	2c00      	cmp	r4, #0
 8001c9a:	d01d      	beq.n	8001cd8 <HAL_TIM_PWM_Init+0x46>
 8001c9c:	0025      	movs	r5, r4
 8001c9e:	3539      	adds	r5, #57	@ 0x39
 8001ca0:	782b      	ldrb	r3, [r5, #0]
 8001ca2:	b2da      	uxtb	r2, r3
 8001ca4:	2b00      	cmp	r3, #0
 8001ca6:	d105      	bne.n	8001cb4 <HAL_TIM_PWM_Init+0x22>
 8001ca8:	0023      	movs	r3, r4
 8001caa:	3338      	adds	r3, #56	@ 0x38
 8001cac:	0020      	movs	r0, r4
 8001cae:	701a      	strb	r2, [r3, #0]
 8001cb0:	f7ff ffee 	bl	8001c90 <HAL_TIM_PWM_MspInit>
 8001cb4:	2302      	movs	r3, #2
 8001cb6:	702b      	strb	r3, [r5, #0]
 8001cb8:	6820      	ldr	r0, [r4, #0]
 8001cba:	1d21      	adds	r1, r4, #4
 8001cbc:	f7ff fe50 	bl	8001960 <TIM_Base_SetConfig>
 8001cc0:	0022      	movs	r2, r4
 8001cc2:	2301      	movs	r3, #1
 8001cc4:	2000      	movs	r0, #0
 8001cc6:	323e      	adds	r2, #62	@ 0x3e
 8001cc8:	7013      	strb	r3, [r2, #0]
 8001cca:	343d      	adds	r4, #61	@ 0x3d
 8001ccc:	3a04      	subs	r2, #4
 8001cce:	7013      	strb	r3, [r2, #0]
 8001cd0:	7053      	strb	r3, [r2, #1]
 8001cd2:	7093      	strb	r3, [r2, #2]
 8001cd4:	7023      	strb	r3, [r4, #0]
 8001cd6:	702b      	strb	r3, [r5, #0]
 8001cd8:	bd70      	pop	{r4, r5, r6, pc}

08001cda <HAL_TIM_PWM_Start_DMA>:
 8001cda:	b510      	push	{r4, lr}
 8001cdc:	f7ff fecc 	bl	8001a78 <HAL_TIM_OC_Start_DMA>
 8001ce0:	bd10      	pop	{r4, pc}

08001ce2 <HAL_TIM_PWM_Stop_DMA>:
 8001ce2:	b510      	push	{r4, lr}
 8001ce4:	f7ff ff80 	bl	8001be8 <HAL_TIM_OC_Stop_DMA>
 8001ce8:	bd10      	pop	{r4, pc}
	...

08001cec <HAL_TIM_PWM_ConfigChannel>:
 8001cec:	b5f8      	push	{r3, r4, r5, r6, r7, lr}
 8001cee:	0005      	movs	r5, r0
 8001cf0:	3538      	adds	r5, #56	@ 0x38
 8001cf2:	000c      	movs	r4, r1
 8001cf4:	7829      	ldrb	r1, [r5, #0]
 8001cf6:	0003      	movs	r3, r0
 8001cf8:	2002      	movs	r0, #2
 8001cfa:	2901      	cmp	r1, #1
 8001cfc:	d00a      	beq.n	8001d14 <HAL_TIM_PWM_ConfigChannel+0x28>
 8001cfe:	3801      	subs	r0, #1
 8001d00:	7028      	strb	r0, [r5, #0]
 8001d02:	2a08      	cmp	r2, #8
 8001d04:	d052      	beq.n	8001dac <HAL_TIM_PWM_ConfigChannel+0xc0>
 8001d06:	d806      	bhi.n	8001d16 <HAL_TIM_PWM_ConfigChannel+0x2a>
 8001d08:	2a00      	cmp	r2, #0
 8001d0a:	d02a      	beq.n	8001d62 <HAL_TIM_PWM_ConfigChannel+0x76>
 8001d0c:	2a04      	cmp	r2, #4
 8001d0e:	d03b      	beq.n	8001d88 <HAL_TIM_PWM_ConfigChannel+0x9c>
 8001d10:	2300      	movs	r3, #0
 8001d12:	702b      	strb	r3, [r5, #0]
 8001d14:	bdf8      	pop	{r3, r4, r5, r6, r7, pc}
 8001d16:	2a0c      	cmp	r2, #12
 8001d18:	d1fa      	bne.n	8001d10 <HAL_TIM_PWM_ConfigChannel+0x24>
 8001d1a:	681b      	ldr	r3, [r3, #0]
 8001d1c:	4934      	ldr	r1, [pc, #208]	@ (8001df0 <HAL_TIM_PWM_ConfigChannel+0x104>)
 8001d1e:	6a18      	ldr	r0, [r3, #32]
 8001d20:	6a1a      	ldr	r2, [r3, #32]
 8001d22:	400a      	ands	r2, r1
 8001d24:	621a      	str	r2, [r3, #32]
 8001d26:	685e      	ldr	r6, [r3, #4]
 8001d28:	4932      	ldr	r1, [pc, #200]	@ (8001df4 <HAL_TIM_PWM_ConfigChannel+0x108>)
 8001d2a:	69da      	ldr	r2, [r3, #28]
 8001d2c:	400a      	ands	r2, r1
 8001d2e:	6821      	ldr	r1, [r4, #0]
 8001d30:	0209      	lsls	r1, r1, #8
 8001d32:	4311      	orrs	r1, r2
 8001d34:	4a30      	ldr	r2, [pc, #192]	@ (8001df8 <HAL_TIM_PWM_ConfigChannel+0x10c>)
 8001d36:	4010      	ands	r0, r2
 8001d38:	68a2      	ldr	r2, [r4, #8]
 8001d3a:	605e      	str	r6, [r3, #4]
 8001d3c:	0312      	lsls	r2, r2, #12
 8001d3e:	61d9      	str	r1, [r3, #28]
 8001d40:	6861      	ldr	r1, [r4, #4]
 8001d42:	4302      	orrs	r2, r0
 8001d44:	6419      	str	r1, [r3, #64]	@ 0x40
 8001d46:	621a      	str	r2, [r3, #32]
 8001d48:	2280      	movs	r2, #128	@ 0x80
 8001d4a:	69d9      	ldr	r1, [r3, #28]
 8001d4c:	0112      	lsls	r2, r2, #4
 8001d4e:	430a      	orrs	r2, r1
 8001d50:	61da      	str	r2, [r3, #28]
 8001d52:	69da      	ldr	r2, [r3, #28]
 8001d54:	4929      	ldr	r1, [pc, #164]	@ (8001dfc <HAL_TIM_PWM_ConfigChannel+0x110>)
 8001d56:	400a      	ands	r2, r1
 8001d58:	61da      	str	r2, [r3, #28]
 8001d5a:	68e2      	ldr	r2, [r4, #12]
 8001d5c:	69d9      	ldr	r1, [r3, #28]
 8001d5e:	0212      	lsls	r2, r2, #8
 8001d60:	e043      	b.n	8001dea <HAL_TIM_PWM_ConfigChannel+0xfe>
 8001d62:	681e      	ldr	r6, [r3, #0]
 8001d64:	0021      	movs	r1, r4
 8001d66:	0030      	movs	r0, r6
 8001d68:	f7ff fe24 	bl	80019b4 <TIM_OC1_SetConfig>
 8001d6c:	2308      	movs	r3, #8
 8001d6e:	69b2      	ldr	r2, [r6, #24]
 8001d70:	4313      	orrs	r3, r2
 8001d72:	2204      	movs	r2, #4
 8001d74:	61b3      	str	r3, [r6, #24]
 8001d76:	69b3      	ldr	r3, [r6, #24]
 8001d78:	4393      	bics	r3, r2
 8001d7a:	61b3      	str	r3, [r6, #24]
 8001d7c:	69b3      	ldr	r3, [r6, #24]
 8001d7e:	68e2      	ldr	r2, [r4, #12]
 8001d80:	4313      	orrs	r3, r2
 8001d82:	61b3      	str	r3, [r6, #24]
 8001d84:	2000      	movs	r0, #0
 8001d86:	e7c3      	b.n	8001d10 <HAL_TIM_PWM_ConfigChannel+0x24>
 8001d88:	681e      	ldr	r6, [r3, #0]
 8001d8a:	0021      	movs	r1, r4
 8001d8c:	0030      	movs	r0, r6
 8001d8e:	f7ff fe27 	bl	80019e0 <TIM_OC2_SetConfig>
 8001d92:	2380      	movs	r3, #128	@ 0x80
 8001d94:	69b2      	ldr	r2, [r6, #24]
 8001d96:	011b      	lsls	r3, r3, #4
 8001d98:	4313      	orrs	r3, r2
 8001d9a:	61b3      	str	r3, [r6, #24]
 8001d9c:	69b3      	ldr	r3, [r6, #24]
 8001d9e:	4a17      	ldr	r2, [pc, #92]	@ (8001dfc <HAL_TIM_PWM_ConfigChannel+0x110>)
 8001da0:	4013      	ands	r3, r2
 8001da2:	61b3      	str	r3, [r6, #24]
 8001da4:	68e3      	ldr	r3, [r4, #12]
 8001da6:	69b2      	ldr	r2, [r6, #24]
 8001da8:	021b      	lsls	r3, r3, #8
 8001daa:	e7e9      	b.n	8001d80 <HAL_TIM_PWM_ConfigChannel+0x94>
 8001dac:	681b      	ldr	r3, [r3, #0]
 8001dae:	4814      	ldr	r0, [pc, #80]	@ (8001e00 <HAL_TIM_PWM_ConfigChannel+0x114>)
 8001db0:	6a1f      	ldr	r7, [r3, #32]
 8001db2:	6a19      	ldr	r1, [r3, #32]
 8001db4:	4001      	ands	r1, r0
 8001db6:	6219      	str	r1, [r3, #32]
 8001db8:	2173      	movs	r1, #115	@ 0x73
 8001dba:	685e      	ldr	r6, [r3, #4]
 8001dbc:	69d8      	ldr	r0, [r3, #28]
 8001dbe:	4388      	bics	r0, r1
 8001dc0:	6821      	ldr	r1, [r4, #0]
 8001dc2:	4308      	orrs	r0, r1
 8001dc4:	490f      	ldr	r1, [pc, #60]	@ (8001e04 <HAL_TIM_PWM_ConfigChannel+0x118>)
 8001dc6:	400f      	ands	r7, r1
 8001dc8:	68a1      	ldr	r1, [r4, #8]
 8001dca:	605e      	str	r6, [r3, #4]
 8001dcc:	0209      	lsls	r1, r1, #8
 8001dce:	61d8      	str	r0, [r3, #28]
 8001dd0:	6860      	ldr	r0, [r4, #4]
 8001dd2:	4339      	orrs	r1, r7
 8001dd4:	63d8      	str	r0, [r3, #60]	@ 0x3c
 8001dd6:	6219      	str	r1, [r3, #32]
 8001dd8:	69d9      	ldr	r1, [r3, #28]
 8001dda:	430a      	orrs	r2, r1
 8001ddc:	2104      	movs	r1, #4
 8001dde:	61da      	str	r2, [r3, #28]
 8001de0:	69da      	ldr	r2, [r3, #28]
 8001de2:	438a      	bics	r2, r1
 8001de4:	61da      	str	r2, [r3, #28]
 8001de6:	69da      	ldr	r2, [r3, #28]
 8001de8:	68e1      	ldr	r1, [r4, #12]
 8001dea:	430a      	orrs	r2, r1
 8001dec:	61da      	str	r2, [r3, #28]
 8001dee:	e7c9      	b.n	8001d84 <HAL_TIM_PWM_ConfigChannel+0x98>
 8001df0:	ffffefff 	.word	0xffffefff
 8001df4:	ffff8cff 	.word	0xffff8cff
 8001df8:	ffffdfff 	.word	0xffffdfff
 8001dfc:	fffffbff 	.word	0xfffffbff
 8001e00:	fffffeff 	.word	0xfffffeff
 8001e04:	fffffdff 	.word	0xfffffdff

08001e08 <HAL_TIM_ConfigClockSource>:
 8001e08:	b5f0      	push	{r4, r5, r6, r7, lr}
 8001e0a:	0004      	movs	r4, r0
 8001e0c:	2202      	movs	r2, #2
 8001e0e:	3438      	adds	r4, #56	@ 0x38
 8001e10:	7825      	ldrb	r5, [r4, #0]
 8001e12:	0003      	movs	r3, r0
 8001e14:	0010      	movs	r0, r2
 8001e16:	2d01      	cmp	r5, #1
 8001e18:	d01c      	beq.n	8001e54 <HAL_TIM_ConfigClockSource+0x4c>
 8001e1a:	001d      	movs	r5, r3
 8001e1c:	3801      	subs	r0, #1
 8001e1e:	3539      	adds	r5, #57	@ 0x39
 8001e20:	7020      	strb	r0, [r4, #0]
 8001e22:	702a      	strb	r2, [r5, #0]
 8001e24:	681b      	ldr	r3, [r3, #0]
 8001e26:	4e46      	ldr	r6, [pc, #280]	@ (8001f40 <HAL_TIM_ConfigClockSource+0x138>)
 8001e28:	689a      	ldr	r2, [r3, #8]
 8001e2a:	4032      	ands	r2, r6
 8001e2c:	609a      	str	r2, [r3, #8]
 8001e2e:	680a      	ldr	r2, [r1, #0]
 8001e30:	2a60      	cmp	r2, #96	@ 0x60
 8001e32:	d059      	beq.n	8001ee8 <HAL_TIM_ConfigClockSource+0xe0>
 8001e34:	d82e      	bhi.n	8001e94 <HAL_TIM_ConfigClockSource+0x8c>
 8001e36:	2a40      	cmp	r2, #64	@ 0x40
 8001e38:	d100      	bne.n	8001e3c <HAL_TIM_ConfigClockSource+0x34>
 8001e3a:	e06c      	b.n	8001f16 <HAL_TIM_ConfigClockSource+0x10e>
 8001e3c:	d813      	bhi.n	8001e66 <HAL_TIM_ConfigClockSource+0x5e>
 8001e3e:	2a20      	cmp	r2, #32
 8001e40:	d00b      	beq.n	8001e5a <HAL_TIM_ConfigClockSource+0x52>
 8001e42:	d808      	bhi.n	8001e56 <HAL_TIM_ConfigClockSource+0x4e>
 8001e44:	2110      	movs	r1, #16
 8001e46:	0016      	movs	r6, r2
 8001e48:	438e      	bics	r6, r1
 8001e4a:	d006      	beq.n	8001e5a <HAL_TIM_ConfigClockSource+0x52>
 8001e4c:	2301      	movs	r3, #1
 8001e4e:	702b      	strb	r3, [r5, #0]
 8001e50:	2300      	movs	r3, #0
 8001e52:	7023      	strb	r3, [r4, #0]
 8001e54:	bdf0      	pop	{r4, r5, r6, r7, pc}
 8001e56:	2a30      	cmp	r2, #48	@ 0x30
 8001e58:	d1f8      	bne.n	8001e4c <HAL_TIM_ConfigClockSource+0x44>
 8001e5a:	2070      	movs	r0, #112	@ 0x70
 8001e5c:	6899      	ldr	r1, [r3, #8]
 8001e5e:	4381      	bics	r1, r0
 8001e60:	430a      	orrs	r2, r1
 8001e62:	2107      	movs	r1, #7
 8001e64:	e02d      	b.n	8001ec2 <HAL_TIM_ConfigClockSource+0xba>
 8001e66:	2a50      	cmp	r2, #80	@ 0x50
 8001e68:	d1f0      	bne.n	8001e4c <HAL_TIM_ConfigClockSource+0x44>
 8001e6a:	684e      	ldr	r6, [r1, #4]
 8001e6c:	68ca      	ldr	r2, [r1, #12]
 8001e6e:	6a19      	ldr	r1, [r3, #32]
 8001e70:	6a1f      	ldr	r7, [r3, #32]
 8001e72:	0112      	lsls	r2, r2, #4
 8001e74:	4387      	bics	r7, r0
 8001e76:	621f      	str	r7, [r3, #32]
 8001e78:	27f0      	movs	r7, #240	@ 0xf0
 8001e7a:	6998      	ldr	r0, [r3, #24]
 8001e7c:	43b8      	bics	r0, r7
 8001e7e:	4302      	orrs	r2, r0
 8001e80:	200a      	movs	r0, #10
 8001e82:	619a      	str	r2, [r3, #24]
 8001e84:	2270      	movs	r2, #112	@ 0x70
 8001e86:	4381      	bics	r1, r0
 8001e88:	4331      	orrs	r1, r6
 8001e8a:	6219      	str	r1, [r3, #32]
 8001e8c:	6899      	ldr	r1, [r3, #8]
 8001e8e:	4391      	bics	r1, r2
 8001e90:	3a19      	subs	r2, #25
 8001e92:	e016      	b.n	8001ec2 <HAL_TIM_ConfigClockSource+0xba>
 8001e94:	2680      	movs	r6, #128	@ 0x80
 8001e96:	0176      	lsls	r6, r6, #5
 8001e98:	42b2      	cmp	r2, r6
 8001e9a:	d014      	beq.n	8001ec6 <HAL_TIM_ConfigClockSource+0xbe>
 8001e9c:	2680      	movs	r6, #128	@ 0x80
 8001e9e:	01b6      	lsls	r6, r6, #6
 8001ea0:	42b2      	cmp	r2, r6
 8001ea2:	d012      	beq.n	8001eca <HAL_TIM_ConfigClockSource+0xc2>
 8001ea4:	2a70      	cmp	r2, #112	@ 0x70
 8001ea6:	d1d1      	bne.n	8001e4c <HAL_TIM_ConfigClockSource+0x44>
 8001ea8:	6898      	ldr	r0, [r3, #8]
 8001eaa:	4a26      	ldr	r2, [pc, #152]	@ (8001f44 <HAL_TIM_ConfigClockSource+0x13c>)
 8001eac:	684e      	ldr	r6, [r1, #4]
 8001eae:	4010      	ands	r0, r2
 8001eb0:	688a      	ldr	r2, [r1, #8]
 8001eb2:	68c9      	ldr	r1, [r1, #12]
 8001eb4:	4332      	orrs	r2, r6
 8001eb6:	0209      	lsls	r1, r1, #8
 8001eb8:	430a      	orrs	r2, r1
 8001eba:	4302      	orrs	r2, r0
 8001ebc:	609a      	str	r2, [r3, #8]
 8001ebe:	2277      	movs	r2, #119	@ 0x77
 8001ec0:	6899      	ldr	r1, [r3, #8]
 8001ec2:	430a      	orrs	r2, r1
 8001ec4:	609a      	str	r2, [r3, #8]
 8001ec6:	2000      	movs	r0, #0
 8001ec8:	e7c0      	b.n	8001e4c <HAL_TIM_ConfigClockSource+0x44>
 8001eca:	6898      	ldr	r0, [r3, #8]
 8001ecc:	4a1d      	ldr	r2, [pc, #116]	@ (8001f44 <HAL_TIM_ConfigClockSource+0x13c>)
 8001ece:	684e      	ldr	r6, [r1, #4]
 8001ed0:	4010      	ands	r0, r2
 8001ed2:	688a      	ldr	r2, [r1, #8]
 8001ed4:	68c9      	ldr	r1, [r1, #12]
 8001ed6:	4332      	orrs	r2, r6
 8001ed8:	0209      	lsls	r1, r1, #8
 8001eda:	430a      	orrs	r2, r1
 8001edc:	4302      	orrs	r2, r0
 8001ede:	609a      	str	r2, [r3, #8]
 8001ee0:	2280      	movs	r2, #128	@ 0x80
 8001ee2:	6899      	ldr	r1, [r3, #8]
 8001ee4:	01d2      	lsls	r2, r2, #7
 8001ee6:	e7ec      	b.n	8001ec2 <HAL_TIM_ConfigClockSource+0xba>
 8001ee8:	2710      	movs	r7, #16
 8001eea:	6a18      	ldr	r0, [r3, #32]
 8001eec:	6a1e      	ldr	r6, [r3, #32]
 8001eee:	684a      	ldr	r2, [r1, #4]
 8001ef0:	43be      	bics	r6, r7
 8001ef2:	68c9      	ldr	r1, [r1, #12]
 8001ef4:	621e      	str	r6, [r3, #32]
 8001ef6:	699e      	ldr	r6, [r3, #24]
 8001ef8:	4f13      	ldr	r7, [pc, #76]	@ (8001f48 <HAL_TIM_ConfigClockSource+0x140>)
 8001efa:	0309      	lsls	r1, r1, #12
 8001efc:	403e      	ands	r6, r7
 8001efe:	4331      	orrs	r1, r6
 8001f00:	26a0      	movs	r6, #160	@ 0xa0
 8001f02:	0112      	lsls	r2, r2, #4
 8001f04:	43b0      	bics	r0, r6
 8001f06:	4302      	orrs	r2, r0
 8001f08:	6199      	str	r1, [r3, #24]
 8001f0a:	621a      	str	r2, [r3, #32]
 8001f0c:	2270      	movs	r2, #112	@ 0x70
 8001f0e:	6899      	ldr	r1, [r3, #8]
 8001f10:	4391      	bics	r1, r2
 8001f12:	3a09      	subs	r2, #9
 8001f14:	e7d5      	b.n	8001ec2 <HAL_TIM_ConfigClockSource+0xba>
 8001f16:	684e      	ldr	r6, [r1, #4]
 8001f18:	68ca      	ldr	r2, [r1, #12]
 8001f1a:	6a19      	ldr	r1, [r3, #32]
 8001f1c:	6a1f      	ldr	r7, [r3, #32]
 8001f1e:	0112      	lsls	r2, r2, #4
 8001f20:	4387      	bics	r7, r0
 8001f22:	621f      	str	r7, [r3, #32]
 8001f24:	27f0      	movs	r7, #240	@ 0xf0
 8001f26:	6998      	ldr	r0, [r3, #24]
 8001f28:	43b8      	bics	r0, r7
 8001f2a:	4302      	orrs	r2, r0
 8001f2c:	200a      	movs	r0, #10
 8001f2e:	619a      	str	r2, [r3, #24]
 8001f30:	2270      	movs	r2, #112	@ 0x70
 8001f32:	4381      	bics	r1, r0
 8001f34:	4331      	orrs	r1, r6
 8001f36:	6219      	str	r1, [r3, #32]
 8001f38:	6899      	ldr	r1, [r3, #8]
 8001f3a:	4391      	bics	r1, r2
 8001f3c:	3a29      	subs	r2, #41	@ 0x29
 8001f3e:	e7c0      	b.n	8001ec2 <HAL_TIM_ConfigClockSource+0xba>
 8001f40:	ffff0088 	.word	0xffff0088
 8001f44:	ffff00ff 	.word	0xffff00ff
 8001f48:	ffff0fff 	.word	0xffff0fff

08001f4c <TIM_DMADelayPulseCplt>:
 8001f4c:	b510      	push	{r4, lr}
 8001f4e:	6a84      	ldr	r4, [r0, #40]	@ 0x28
 8001f50:	6a22      	ldr	r2, [r4, #32]
 8001f52:	4282      	cmp	r2, r0
 8001f54:	d10d      	bne.n	8001f72 <TIM_DMADelayPulseCplt+0x26>
 8001f56:	2301      	movs	r3, #1
 8001f58:	7623      	strb	r3, [r4, #24]
 8001f5a:	69d2      	ldr	r2, [r2, #28]
 8001f5c:	2a00      	cmp	r2, #0
 8001f5e:	d102      	bne.n	8001f66 <TIM_DMADelayPulseCplt+0x1a>
 8001f60:	0022      	movs	r2, r4
 8001f62:	323a      	adds	r2, #58	@ 0x3a
 8001f64:	7013      	strb	r3, [r2, #0]
 8001f66:	0020      	movs	r0, r4
 8001f68:	f7fe fc86 	bl	8000878 <HAL_TIM_PWM_PulseFinishedCallback>
 8001f6c:	2300      	movs	r3, #0
 8001f6e:	7623      	strb	r3, [r4, #24]
 8001f70:	bd10      	pop	{r4, pc}
 8001f72:	6a63      	ldr	r3, [r4, #36]	@ 0x24
 8001f74:	4283      	cmp	r3, r0
 8001f76:	d109      	bne.n	8001f8c <TIM_DMADelayPulseCplt+0x40>
 8001f78:	2202      	movs	r2, #2
 8001f7a:	7622      	strb	r2, [r4, #24]
 8001f7c:	69db      	ldr	r3, [r3, #28]
 8001f7e:	2b00      	cmp	r3, #0
 8001f80:	d1f1      	bne.n	8001f66 <TIM_DMADelayPulseCplt+0x1a>
 8001f82:	0023      	movs	r3, r4
 8001f84:	3a01      	subs	r2, #1
 8001f86:	333b      	adds	r3, #59	@ 0x3b
 8001f88:	701a      	strb	r2, [r3, #0]
 8001f8a:	e7ec      	b.n	8001f66 <TIM_DMADelayPulseCplt+0x1a>
 8001f8c:	6aa3      	ldr	r3, [r4, #40]	@ 0x28
 8001f8e:	4283      	cmp	r3, r0
 8001f90:	d108      	bne.n	8001fa4 <TIM_DMADelayPulseCplt+0x58>
 8001f92:	2204      	movs	r2, #4
 8001f94:	7622      	strb	r2, [r4, #24]
 8001f96:	69db      	ldr	r3, [r3, #28]
 8001f98:	2b00      	cmp	r3, #0
 8001f9a:	d1e4      	bne.n	8001f66 <TIM_DMADelayPulseCplt+0x1a>
 8001f9c:	0023      	movs	r3, r4
 8001f9e:	3a03      	subs	r2, #3
 8001fa0:	333c      	adds	r3, #60	@ 0x3c
 8001fa2:	e7f1      	b.n	8001f88 <TIM_DMADelayPulseCplt+0x3c>
 8001fa4:	6ae3      	ldr	r3, [r4, #44]	@ 0x2c
 8001fa6:	4283      	cmp	r3, r0
 8001fa8:	d1dd      	bne.n	8001f66 <TIM_DMADelayPulseCplt+0x1a>
 8001faa:	2208      	movs	r2, #8
 8001fac:	7622      	strb	r2, [r4, #24]
 8001fae:	69db      	ldr	r3, [r3, #28]
 8001fb0:	2b00      	cmp	r3, #0
 8001fb2:	d1d8      	bne.n	8001f66 <TIM_DMADelayPulseCplt+0x1a>
 8001fb4:	0023      	movs	r3, r4
 8001fb6:	3a07      	subs	r2, #7
 8001fb8:	333d      	adds	r3, #61	@ 0x3d
 8001fba:	e7e5      	b.n	8001f88 <TIM_DMADelayPulseCplt+0x3c>

08001fbc <HAL_TIM_PWM_PulseFinishedHalfCpltCallback>:
 8001fbc:	4770      	bx	lr

08001fbe <TIM_DMADelayPulseHalfCplt>:
 8001fbe:	b510      	push	{r4, lr}
 8001fc0:	6a84      	ldr	r4, [r0, #40]	@ 0x28
 8001fc2:	6a23      	ldr	r3, [r4, #32]
 8001fc4:	4283      	cmp	r3, r0
 8001fc6:	d107      	bne.n	8001fd8 <TIM_DMADelayPulseHalfCplt+0x1a>
 8001fc8:	2301      	movs	r3, #1
 8001fca:	7623      	strb	r3, [r4, #24]
 8001fcc:	0020      	movs	r0, r4
 8001fce:	f7ff fff5 	bl	8001fbc <HAL_TIM_PWM_PulseFinishedHalfCpltCallback>
 8001fd2:	2300      	movs	r3, #0
 8001fd4:	7623      	strb	r3, [r4, #24]
 8001fd6:	bd10      	pop	{r4, pc}
 8001fd8:	6a63      	ldr	r3, [r4, #36]	@ 0x24
 8001fda:	4283      	cmp	r3, r0
 8001fdc:	d101      	bne.n	8001fe2 <TIM_DMADelayPulseHalfCplt+0x24>
 8001fde:	2302      	movs	r3, #2
 8001fe0:	e7f3      	b.n	8001fca <TIM_DMADelayPulseHalfCplt+0xc>
 8001fe2:	6aa3      	ldr	r3, [r4, #40]	@ 0x28
 8001fe4:	4283      	cmp	r3, r0
 8001fe6:	d101      	bne.n	8001fec <TIM_DMADelayPulseHalfCplt+0x2e>
 8001fe8:	2304      	movs	r3, #4
 8001fea:	e7ee      	b.n	8001fca <TIM_DMADelayPulseHalfCplt+0xc>
 8001fec:	6ae3      	ldr	r3, [r4, #44]	@ 0x2c
 8001fee:	4283      	cmp	r3, r0
 8001ff0:	d1ec      	bne.n	8001fcc <TIM_DMADelayPulseHalfCplt+0xe>
 8001ff2:	2308      	movs	r3, #8
 8001ff4:	e7e9      	b.n	8001fca <TIM_DMADelayPulseHalfCplt+0xc>

08001ff6 <HAL_TIM_ErrorCallback>:
 8001ff6:	4770      	bx	lr

08001ff8 <TIM_DMAError>:
 8001ff8:	b510      	push	{r4, lr}
 8001ffa:	6a84      	ldr	r4, [r0, #40]	@ 0x28
 8001ffc:	6a23      	ldr	r3, [r4, #32]
 8001ffe:	4283      	cmp	r3, r0
 8002000:	d105      	bne.n	800200e <TIM_DMAError+0x16>
 8002002:	2301      	movs	r3, #1
 8002004:	0022      	movs	r2, r4
 8002006:	7623      	strb	r3, [r4, #24]
 8002008:	323a      	adds	r2, #58	@ 0x3a
 800200a:	7013      	strb	r3, [r2, #0]
 800200c:	e008      	b.n	8002020 <TIM_DMAError+0x28>
 800200e:	6a63      	ldr	r3, [r4, #36]	@ 0x24
 8002010:	4283      	cmp	r3, r0
 8002012:	d10b      	bne.n	800202c <TIM_DMAError+0x34>
 8002014:	2302      	movs	r3, #2
 8002016:	7623      	strb	r3, [r4, #24]
 8002018:	0023      	movs	r3, r4
 800201a:	2201      	movs	r2, #1
 800201c:	333b      	adds	r3, #59	@ 0x3b
 800201e:	701a      	strb	r2, [r3, #0]
 8002020:	0020      	movs	r0, r4
 8002022:	f7ff ffe8 	bl	8001ff6 <HAL_TIM_ErrorCallback>
 8002026:	2300      	movs	r3, #0
 8002028:	7623      	strb	r3, [r4, #24]
 800202a:	bd10      	pop	{r4, pc}
 800202c:	6aa2      	ldr	r2, [r4, #40]	@ 0x28
 800202e:	2301      	movs	r3, #1
 8002030:	4282      	cmp	r2, r0
 8002032:	d104      	bne.n	800203e <TIM_DMAError+0x46>
 8002034:	2204      	movs	r2, #4
 8002036:	7622      	strb	r2, [r4, #24]
 8002038:	0022      	movs	r2, r4
 800203a:	323c      	adds	r2, #60	@ 0x3c
 800203c:	e7e5      	b.n	800200a <TIM_DMAError+0x12>
 800203e:	6ae2      	ldr	r2, [r4, #44]	@ 0x2c
 8002040:	4282      	cmp	r2, r0
 8002042:	d104      	bne.n	800204e <TIM_DMAError+0x56>
 8002044:	2208      	movs	r2, #8
 8002046:	7622      	strb	r2, [r4, #24]
 8002048:	0022      	movs	r2, r4
 800204a:	323d      	adds	r2, #61	@ 0x3d
 800204c:	e7dd      	b.n	800200a <TIM_DMAError+0x12>
 800204e:	0022      	movs	r2, r4
 8002050:	3239      	adds	r2, #57	@ 0x39
 8002052:	e7da      	b.n	800200a <TIM_DMAError+0x12>

08002054 <HAL_TIMEx_MasterConfigSynchronization>:
 8002054:	b570      	push	{r4, r5, r6, lr}
 8002056:	0004      	movs	r4, r0
 8002058:	2202      	movs	r2, #2
 800205a:	3438      	adds	r4, #56	@ 0x38
 800205c:	7825      	ldrb	r5, [r4, #0]
 800205e:	0003      	movs	r3, r0
 8002060:	0010      	movs	r0, r2
 8002062:	2d01      	cmp	r5, #1
 8002064:	d01d      	beq.n	80020a2 <HAL_TIMEx_MasterConfigSynchronization+0x4e>
 8002066:	001d      	movs	r5, r3
 8002068:	2670      	movs	r6, #112	@ 0x70
 800206a:	3539      	adds	r5, #57	@ 0x39
 800206c:	702a      	strb	r2, [r5, #0]
 800206e:	681b      	ldr	r3, [r3, #0]
 8002070:	6858      	ldr	r0, [r3, #4]
 8002072:	689a      	ldr	r2, [r3, #8]
 8002074:	43b0      	bics	r0, r6
 8002076:	680e      	ldr	r6, [r1, #0]
 8002078:	4330      	orrs	r0, r6
 800207a:	6058      	str	r0, [r3, #4]
 800207c:	2080      	movs	r0, #128	@ 0x80
 800207e:	05c0      	lsls	r0, r0, #23
 8002080:	4283      	cmp	r3, r0
 8002082:	d005      	beq.n	8002090 <HAL_TIMEx_MasterConfigSynchronization+0x3c>
 8002084:	4807      	ldr	r0, [pc, #28]	@ (80020a4 <HAL_TIMEx_MasterConfigSynchronization+0x50>)
 8002086:	4283      	cmp	r3, r0
 8002088:	d002      	beq.n	8002090 <HAL_TIMEx_MasterConfigSynchronization+0x3c>
 800208a:	4807      	ldr	r0, [pc, #28]	@ (80020a8 <HAL_TIMEx_MasterConfigSynchronization+0x54>)
 800208c:	4283      	cmp	r3, r0
 800208e:	d104      	bne.n	800209a <HAL_TIMEx_MasterConfigSynchronization+0x46>
 8002090:	2080      	movs	r0, #128	@ 0x80
 8002092:	6849      	ldr	r1, [r1, #4]
 8002094:	4382      	bics	r2, r0
 8002096:	430a      	orrs	r2, r1
 8002098:	609a      	str	r2, [r3, #8]
 800209a:	2301      	movs	r3, #1
 800209c:	2000      	movs	r0, #0
 800209e:	702b      	strb	r3, [r5, #0]
 80020a0:	7020      	strb	r0, [r4, #0]
 80020a2:	bd70      	pop	{r4, r5, r6, pc}
 80020a4:	40010800 	.word	0x40010800
 80020a8:	40011400 	.word	0x40011400

080020ac <UART_EndRxTransfer>:
 80020ac:	b530      	push	{r4, r5, lr}
 80020ae:	f3ef 8410 	mrs	r4, PRIMASK
 80020b2:	2201      	movs	r2, #1
 80020b4:	f382 8810 	msr	PRIMASK, r2
 80020b8:	6801      	ldr	r1, [r0, #0]
 80020ba:	4d12      	ldr	r5, [pc, #72]	@ (8002104 <UART_EndRxTransfer+0x58>)
 80020bc:	680b      	ldr	r3, [r1, #0]
 80020be:	402b      	ands	r3, r5
 80020c0:	600b      	str	r3, [r1, #0]
 80020c2:	f384 8810 	msr	PRIMASK, r4
 80020c6:	f3ef 8410 	mrs	r4, PRIMASK
 80020ca:	f382 8810 	msr	PRIMASK, r2
 80020ce:	6801      	ldr	r1, [r0, #0]
 80020d0:	688b      	ldr	r3, [r1, #8]
 80020d2:	4393      	bics	r3, r2
 80020d4:	608b      	str	r3, [r1, #8]
 80020d6:	f384 8810 	msr	PRIMASK, r4
 80020da:	6e03      	ldr	r3, [r0, #96]	@ 0x60
 80020dc:	4293      	cmp	r3, r2
 80020de:	d10a      	bne.n	80020f6 <UART_EndRxTransfer+0x4a>
 80020e0:	f3ef 8110 	mrs	r1, PRIMASK
 80020e4:	f383 8810 	msr	PRIMASK, r3
 80020e8:	2410      	movs	r4, #16
 80020ea:	6802      	ldr	r2, [r0, #0]
 80020ec:	6813      	ldr	r3, [r2, #0]
 80020ee:	43a3      	bics	r3, r4
 80020f0:	6013      	str	r3, [r2, #0]
 80020f2:	f381 8810 	msr	PRIMASK, r1
 80020f6:	2220      	movs	r2, #32
 80020f8:	1d03      	adds	r3, r0, #4
 80020fa:	67da      	str	r2, [r3, #124]	@ 0x7c
 80020fc:	2300      	movs	r3, #0
 80020fe:	6603      	str	r3, [r0, #96]	@ 0x60
 8002100:	6683      	str	r3, [r0, #104]	@ 0x68
 8002102:	bd30      	pop	{r4, r5, pc}
 8002104:	fffffedf 	.word	0xfffffedf

08002108 <HAL_UART_TxCpltCallback>:
 8002108:	4770      	bx	lr

0800210a <HAL_UART_ErrorCallback>:
 800210a:	4770      	bx	lr

0800210c <UART_DMAAbortOnError>:
 800210c:	6a80      	ldr	r0, [r0, #40]	@ 0x28
 800210e:	2200      	movs	r2, #0
 8002110:	0003      	movs	r3, r0
 8002112:	b510      	push	{r4, lr}
 8002114:	335a      	adds	r3, #90	@ 0x5a
 8002116:	801a      	strh	r2, [r3, #0]
 8002118:	f7ff fff7 	bl	800210a <HAL_UART_ErrorCallback>
 800211c:	bd10      	pop	{r4, pc}

0800211e <HAL_UARTEx_RxEventCallback>:
 800211e:	4770      	bx	lr

08002120 <HAL_UART_IRQHandler>:
 8002120:	b5f7      	push	{r0, r1, r2, r4, r5, r6, r7, lr}
 8002122:	0004      	movs	r4, r0
 8002124:	6800      	ldr	r0, [r0, #0]
 8002126:	4bad      	ldr	r3, [pc, #692]	@ (80023dc <HAL_UART_IRQHandler+0x2bc>)
 8002128:	69c1      	ldr	r1, [r0, #28]
 800212a:	6806      	ldr	r6, [r0, #0]
 800212c:	6885      	ldr	r5, [r0, #8]
 800212e:	4219      	tst	r1, r3
 8002130:	d10b      	bne.n	800214a <HAL_UART_IRQHandler+0x2a>
 8002132:	2320      	movs	r3, #32
 8002134:	4219      	tst	r1, r3
 8002136:	d100      	bne.n	800213a <HAL_UART_IRQHandler+0x1a>
 8002138:	e080      	b.n	800223c <HAL_UART_IRQHandler+0x11c>
 800213a:	421e      	tst	r6, r3
 800213c:	d100      	bne.n	8002140 <HAL_UART_IRQHandler+0x20>
 800213e:	e07d      	b.n	800223c <HAL_UART_IRQHandler+0x11c>
 8002140:	6ea3      	ldr	r3, [r4, #104]	@ 0x68
 8002142:	2b00      	cmp	r3, #0
 8002144:	d075      	beq.n	8002232 <HAL_UART_IRQHandler+0x112>
 8002146:	0020      	movs	r0, r4
 8002148:	e06e      	b.n	8002228 <HAL_UART_IRQHandler+0x108>
 800214a:	2301      	movs	r3, #1
 800214c:	002f      	movs	r7, r5
 800214e:	4aa4      	ldr	r2, [pc, #656]	@ (80023e0 <HAL_UART_IRQHandler+0x2c0>)
 8002150:	401f      	ands	r7, r3
 8002152:	4032      	ands	r2, r6
 8002154:	433a      	orrs	r2, r7
 8002156:	d100      	bne.n	800215a <HAL_UART_IRQHandler+0x3a>
 8002158:	e070      	b.n	800223c <HAL_UART_IRQHandler+0x11c>
 800215a:	0025      	movs	r5, r4
 800215c:	3508      	adds	r5, #8
 800215e:	4219      	tst	r1, r3
 8002160:	d005      	beq.n	800216e <HAL_UART_IRQHandler+0x4e>
 8002162:	05f2      	lsls	r2, r6, #23
 8002164:	d503      	bpl.n	800216e <HAL_UART_IRQHandler+0x4e>
 8002166:	6203      	str	r3, [r0, #32]
 8002168:	6fea      	ldr	r2, [r5, #124]	@ 0x7c
 800216a:	4313      	orrs	r3, r2
 800216c:	67eb      	str	r3, [r5, #124]	@ 0x7c
 800216e:	2302      	movs	r3, #2
 8002170:	4219      	tst	r1, r3
 8002172:	d006      	beq.n	8002182 <HAL_UART_IRQHandler+0x62>
 8002174:	2f00      	cmp	r7, #0
 8002176:	d004      	beq.n	8002182 <HAL_UART_IRQHandler+0x62>
 8002178:	6203      	str	r3, [r0, #32]
 800217a:	6fea      	ldr	r2, [r5, #124]	@ 0x7c
 800217c:	18db      	adds	r3, r3, r3
 800217e:	4313      	orrs	r3, r2
 8002180:	67eb      	str	r3, [r5, #124]	@ 0x7c
 8002182:	2304      	movs	r3, #4
 8002184:	4219      	tst	r1, r3
 8002186:	d006      	beq.n	8002196 <HAL_UART_IRQHandler+0x76>
 8002188:	2f00      	cmp	r7, #0
 800218a:	d004      	beq.n	8002196 <HAL_UART_IRQHandler+0x76>
 800218c:	6203      	str	r3, [r0, #32]
 800218e:	6fea      	ldr	r2, [r5, #124]	@ 0x7c
 8002190:	3b02      	subs	r3, #2
 8002192:	4313      	orrs	r3, r2
 8002194:	67eb      	str	r3, [r5, #124]	@ 0x7c
 8002196:	2308      	movs	r3, #8
 8002198:	4219      	tst	r1, r3
 800219a:	d007      	beq.n	80021ac <HAL_UART_IRQHandler+0x8c>
 800219c:	2220      	movs	r2, #32
 800219e:	4032      	ands	r2, r6
 80021a0:	433a      	orrs	r2, r7
 80021a2:	d003      	beq.n	80021ac <HAL_UART_IRQHandler+0x8c>
 80021a4:	6203      	str	r3, [r0, #32]
 80021a6:	6fea      	ldr	r2, [r5, #124]	@ 0x7c
 80021a8:	4313      	orrs	r3, r2
 80021aa:	67eb      	str	r3, [r5, #124]	@ 0x7c
 80021ac:	2380      	movs	r3, #128	@ 0x80
 80021ae:	011b      	lsls	r3, r3, #4
 80021b0:	4219      	tst	r1, r3
 80021b2:	d006      	beq.n	80021c2 <HAL_UART_IRQHandler+0xa2>
 80021b4:	0172      	lsls	r2, r6, #5
 80021b6:	d504      	bpl.n	80021c2 <HAL_UART_IRQHandler+0xa2>
 80021b8:	6203      	str	r3, [r0, #32]
 80021ba:	2320      	movs	r3, #32
 80021bc:	6fea      	ldr	r2, [r5, #124]	@ 0x7c
 80021be:	4313      	orrs	r3, r2
 80021c0:	67eb      	str	r3, [r5, #124]	@ 0x7c
 80021c2:	6feb      	ldr	r3, [r5, #124]	@ 0x7c
 80021c4:	2b00      	cmp	r3, #0
 80021c6:	d034      	beq.n	8002232 <HAL_UART_IRQHandler+0x112>
 80021c8:	2320      	movs	r3, #32
 80021ca:	4219      	tst	r1, r3
 80021cc:	d006      	beq.n	80021dc <HAL_UART_IRQHandler+0xbc>
 80021ce:	421e      	tst	r6, r3
 80021d0:	d004      	beq.n	80021dc <HAL_UART_IRQHandler+0xbc>
 80021d2:	6ea3      	ldr	r3, [r4, #104]	@ 0x68
 80021d4:	2b00      	cmp	r3, #0
 80021d6:	d001      	beq.n	80021dc <HAL_UART_IRQHandler+0xbc>
 80021d8:	0020      	movs	r0, r4
 80021da:	4798      	blx	r3
 80021dc:	6822      	ldr	r2, [r4, #0]
 80021de:	6feb      	ldr	r3, [r5, #124]	@ 0x7c
 80021e0:	2740      	movs	r7, #64	@ 0x40
 80021e2:	6896      	ldr	r6, [r2, #8]
 80021e4:	2228      	movs	r2, #40	@ 0x28
 80021e6:	403e      	ands	r6, r7
 80021e8:	4013      	ands	r3, r2
 80021ea:	0020      	movs	r0, r4
 80021ec:	431e      	orrs	r6, r3
 80021ee:	d021      	beq.n	8002234 <HAL_UART_IRQHandler+0x114>
 80021f0:	f7ff ff5c 	bl	80020ac <UART_EndRxTransfer>
 80021f4:	6823      	ldr	r3, [r4, #0]
 80021f6:	689b      	ldr	r3, [r3, #8]
 80021f8:	423b      	tst	r3, r7
 80021fa:	d017      	beq.n	800222c <HAL_UART_IRQHandler+0x10c>
 80021fc:	f3ef 8110 	mrs	r1, PRIMASK
 8002200:	2301      	movs	r3, #1
 8002202:	f383 8810 	msr	PRIMASK, r3
 8002206:	6822      	ldr	r2, [r4, #0]
 8002208:	6893      	ldr	r3, [r2, #8]
 800220a:	43bb      	bics	r3, r7
 800220c:	6093      	str	r3, [r2, #8]
 800220e:	f381 8810 	msr	PRIMASK, r1
 8002212:	6f60      	ldr	r0, [r4, #116]	@ 0x74
 8002214:	2800      	cmp	r0, #0
 8002216:	d009      	beq.n	800222c <HAL_UART_IRQHandler+0x10c>
 8002218:	4b72      	ldr	r3, [pc, #456]	@ (80023e4 <HAL_UART_IRQHandler+0x2c4>)
 800221a:	6383      	str	r3, [r0, #56]	@ 0x38
 800221c:	f7fe fd90 	bl	8000d40 <HAL_DMA_Abort_IT>
 8002220:	2800      	cmp	r0, #0
 8002222:	d006      	beq.n	8002232 <HAL_UART_IRQHandler+0x112>
 8002224:	6f60      	ldr	r0, [r4, #116]	@ 0x74
 8002226:	6b83      	ldr	r3, [r0, #56]	@ 0x38
 8002228:	4798      	blx	r3
 800222a:	e002      	b.n	8002232 <HAL_UART_IRQHandler+0x112>
 800222c:	0020      	movs	r0, r4
 800222e:	f7ff ff6c 	bl	800210a <HAL_UART_ErrorCallback>
 8002232:	bdf7      	pop	{r0, r1, r2, r4, r5, r6, r7, pc}
 8002234:	f7ff ff69 	bl	800210a <HAL_UART_ErrorCallback>
 8002238:	67ee      	str	r6, [r5, #124]	@ 0x7c
 800223a:	e7fa      	b.n	8002232 <HAL_UART_IRQHandler+0x112>
 800223c:	6e23      	ldr	r3, [r4, #96]	@ 0x60
 800223e:	2b01      	cmp	r3, #1
 8002240:	d000      	beq.n	8002244 <HAL_UART_IRQHandler+0x124>
 8002242:	e09f      	b.n	8002384 <HAL_UART_IRQHandler+0x264>
 8002244:	2210      	movs	r2, #16
 8002246:	4211      	tst	r1, r2
 8002248:	d100      	bne.n	800224c <HAL_UART_IRQHandler+0x12c>
 800224a:	e09b      	b.n	8002384 <HAL_UART_IRQHandler+0x264>
 800224c:	4216      	tst	r6, r2
 800224e:	d100      	bne.n	8002252 <HAL_UART_IRQHandler+0x132>
 8002250:	e098      	b.n	8002384 <HAL_UART_IRQHandler+0x264>
 8002252:	6202      	str	r2, [r0, #32]
 8002254:	6881      	ldr	r1, [r0, #8]
 8002256:	0020      	movs	r0, r4
 8002258:	2640      	movs	r6, #64	@ 0x40
 800225a:	000d      	movs	r5, r1
 800225c:	3058      	adds	r0, #88	@ 0x58
 800225e:	8800      	ldrh	r0, [r0, #0]
 8002260:	4035      	ands	r5, r6
 8002262:	4231      	tst	r1, r6
 8002264:	d05a      	beq.n	800231c <HAL_UART_IRQHandler+0x1fc>
 8002266:	6f61      	ldr	r1, [r4, #116]	@ 0x74
 8002268:	680d      	ldr	r5, [r1, #0]
 800226a:	6869      	ldr	r1, [r5, #4]
 800226c:	b289      	uxth	r1, r1
 800226e:	2900      	cmp	r1, #0
 8002270:	d04a      	beq.n	8002308 <HAL_UART_IRQHandler+0x1e8>
 8002272:	4281      	cmp	r1, r0
 8002274:	d248      	bcs.n	8002308 <HAL_UART_IRQHandler+0x1e8>
 8002276:	0020      	movs	r0, r4
 8002278:	305a      	adds	r0, #90	@ 0x5a
 800227a:	8001      	strh	r1, [r0, #0]
 800227c:	6829      	ldr	r1, [r5, #0]
 800227e:	2020      	movs	r0, #32
 8002280:	000d      	movs	r5, r1
 8002282:	4005      	ands	r5, r0
 8002284:	9501      	str	r5, [sp, #4]
 8002286:	4201      	tst	r1, r0
 8002288:	d130      	bne.n	80022ec <HAL_UART_IRQHandler+0x1cc>
 800228a:	f3ef 8710 	mrs	r7, PRIMASK
 800228e:	f383 8810 	msr	PRIMASK, r3
 8002292:	6825      	ldr	r5, [r4, #0]
 8002294:	4a54      	ldr	r2, [pc, #336]	@ (80023e8 <HAL_UART_IRQHandler+0x2c8>)
 8002296:	6829      	ldr	r1, [r5, #0]
 8002298:	4011      	ands	r1, r2
 800229a:	6029      	str	r1, [r5, #0]
 800229c:	f387 8810 	msr	PRIMASK, r7
 80022a0:	f3ef 8710 	mrs	r7, PRIMASK
 80022a4:	f383 8810 	msr	PRIMASK, r3
 80022a8:	6825      	ldr	r5, [r4, #0]
 80022aa:	68a9      	ldr	r1, [r5, #8]
 80022ac:	4399      	bics	r1, r3
 80022ae:	60a9      	str	r1, [r5, #8]
 80022b0:	f387 8810 	msr	PRIMASK, r7
 80022b4:	f3ef 8c10 	mrs	ip, PRIMASK
 80022b8:	f383 8810 	msr	PRIMASK, r3
 80022bc:	0021      	movs	r1, r4
 80022be:	c980      	ldmia	r1!, {r7}
 80022c0:	68bd      	ldr	r5, [r7, #8]
 80022c2:	43b5      	bics	r5, r6
 80022c4:	60bd      	str	r5, [r7, #8]
 80022c6:	f38c 8810 	msr	PRIMASK, ip
 80022ca:	9a01      	ldr	r2, [sp, #4]
 80022cc:	67c8      	str	r0, [r1, #124]	@ 0x7c
 80022ce:	6622      	str	r2, [r4, #96]	@ 0x60
 80022d0:	f3ef 8010 	mrs	r0, PRIMASK
 80022d4:	f383 8810 	msr	PRIMASK, r3
 80022d8:	2210      	movs	r2, #16
 80022da:	6821      	ldr	r1, [r4, #0]
 80022dc:	680b      	ldr	r3, [r1, #0]
 80022de:	4393      	bics	r3, r2
 80022e0:	600b      	str	r3, [r1, #0]
 80022e2:	f380 8810 	msr	PRIMASK, r0
 80022e6:	6f60      	ldr	r0, [r4, #116]	@ 0x74
 80022e8:	f7fe fd0a 	bl	8000d00 <HAL_DMA_Abort>
 80022ec:	2302      	movs	r3, #2
 80022ee:	0022      	movs	r2, r4
 80022f0:	6663      	str	r3, [r4, #100]	@ 0x64
 80022f2:	0023      	movs	r3, r4
 80022f4:	3258      	adds	r2, #88	@ 0x58
 80022f6:	335a      	adds	r3, #90	@ 0x5a
 80022f8:	881b      	ldrh	r3, [r3, #0]
 80022fa:	8811      	ldrh	r1, [r2, #0]
 80022fc:	1ac9      	subs	r1, r1, r3
 80022fe:	b289      	uxth	r1, r1
 8002300:	0020      	movs	r0, r4
 8002302:	f7ff ff0c 	bl	800211e <HAL_UARTEx_RxEventCallback>
 8002306:	e794      	b.n	8002232 <HAL_UART_IRQHandler+0x112>
 8002308:	4281      	cmp	r1, r0
 800230a:	d000      	beq.n	800230e <HAL_UART_IRQHandler+0x1ee>
 800230c:	e791      	b.n	8002232 <HAL_UART_IRQHandler+0x112>
 800230e:	682b      	ldr	r3, [r5, #0]
 8002310:	069b      	lsls	r3, r3, #26
 8002312:	d400      	bmi.n	8002316 <HAL_UART_IRQHandler+0x1f6>
 8002314:	e78d      	b.n	8002232 <HAL_UART_IRQHandler+0x112>
 8002316:	2302      	movs	r3, #2
 8002318:	6663      	str	r3, [r4, #100]	@ 0x64
 800231a:	e7f1      	b.n	8002300 <HAL_UART_IRQHandler+0x1e0>
 800231c:	0026      	movs	r6, r4
 800231e:	365a      	adds	r6, #90	@ 0x5a
 8002320:	8831      	ldrh	r1, [r6, #0]
 8002322:	8836      	ldrh	r6, [r6, #0]
 8002324:	b289      	uxth	r1, r1
 8002326:	2e00      	cmp	r6, #0
 8002328:	d100      	bne.n	800232c <HAL_UART_IRQHandler+0x20c>
 800232a:	e782      	b.n	8002232 <HAL_UART_IRQHandler+0x112>
 800232c:	1a41      	subs	r1, r0, r1
 800232e:	b289      	uxth	r1, r1
 8002330:	2900      	cmp	r1, #0
 8002332:	d100      	bne.n	8002336 <HAL_UART_IRQHandler+0x216>
 8002334:	e77d      	b.n	8002232 <HAL_UART_IRQHandler+0x112>
 8002336:	f3ef 8710 	mrs	r7, PRIMASK
 800233a:	f383 8810 	msr	PRIMASK, r3
 800233e:	6826      	ldr	r6, [r4, #0]
 8002340:	4a2a      	ldr	r2, [pc, #168]	@ (80023ec <HAL_UART_IRQHandler+0x2cc>)
 8002342:	6830      	ldr	r0, [r6, #0]
 8002344:	4010      	ands	r0, r2
 8002346:	6030      	str	r0, [r6, #0]
 8002348:	f387 8810 	msr	PRIMASK, r7
 800234c:	f3ef 8c10 	mrs	ip, PRIMASK
 8002350:	f383 8810 	msr	PRIMASK, r3
 8002354:	0020      	movs	r0, r4
 8002356:	c880      	ldmia	r0!, {r7}
 8002358:	68be      	ldr	r6, [r7, #8]
 800235a:	439e      	bics	r6, r3
 800235c:	60be      	str	r6, [r7, #8]
 800235e:	f38c 8810 	msr	PRIMASK, ip
 8002362:	2620      	movs	r6, #32
 8002364:	67c6      	str	r6, [r0, #124]	@ 0x7c
 8002366:	6625      	str	r5, [r4, #96]	@ 0x60
 8002368:	66a5      	str	r5, [r4, #104]	@ 0x68
 800236a:	f3ef 8510 	mrs	r5, PRIMASK
 800236e:	f383 8810 	msr	PRIMASK, r3
 8002372:	6820      	ldr	r0, [r4, #0]
 8002374:	3232      	adds	r2, #50	@ 0x32
 8002376:	6803      	ldr	r3, [r0, #0]
 8002378:	32ff      	adds	r2, #255	@ 0xff
 800237a:	4393      	bics	r3, r2
 800237c:	6003      	str	r3, [r0, #0]
 800237e:	f385 8810 	msr	PRIMASK, r5
 8002382:	e7c8      	b.n	8002316 <HAL_UART_IRQHandler+0x1f6>
 8002384:	2380      	movs	r3, #128	@ 0x80
 8002386:	035b      	lsls	r3, r3, #13
 8002388:	4219      	tst	r1, r3
 800238a:	d006      	beq.n	800239a <HAL_UART_IRQHandler+0x27a>
 800238c:	026d      	lsls	r5, r5, #9
 800238e:	d504      	bpl.n	800239a <HAL_UART_IRQHandler+0x27a>
 8002390:	6203      	str	r3, [r0, #32]
 8002392:	0020      	movs	r0, r4
 8002394:	f000 fa48 	bl	8002828 <HAL_UARTEx_WakeupCallback>
 8002398:	e74b      	b.n	8002232 <HAL_UART_IRQHandler+0x112>
 800239a:	2380      	movs	r3, #128	@ 0x80
 800239c:	4219      	tst	r1, r3
 800239e:	d003      	beq.n	80023a8 <HAL_UART_IRQHandler+0x288>
 80023a0:	421e      	tst	r6, r3
 80023a2:	d001      	beq.n	80023a8 <HAL_UART_IRQHandler+0x288>
 80023a4:	6ee3      	ldr	r3, [r4, #108]	@ 0x6c
 80023a6:	e6cc      	b.n	8002142 <HAL_UART_IRQHandler+0x22>
 80023a8:	2240      	movs	r2, #64	@ 0x40
 80023aa:	4211      	tst	r1, r2
 80023ac:	d100      	bne.n	80023b0 <HAL_UART_IRQHandler+0x290>
 80023ae:	e740      	b.n	8002232 <HAL_UART_IRQHandler+0x112>
 80023b0:	4216      	tst	r6, r2
 80023b2:	d100      	bne.n	80023b6 <HAL_UART_IRQHandler+0x296>
 80023b4:	e73d      	b.n	8002232 <HAL_UART_IRQHandler+0x112>
 80023b6:	f3ef 8010 	mrs	r0, PRIMASK
 80023ba:	2301      	movs	r3, #1
 80023bc:	f383 8810 	msr	PRIMASK, r3
 80023c0:	6821      	ldr	r1, [r4, #0]
 80023c2:	680b      	ldr	r3, [r1, #0]
 80023c4:	4393      	bics	r3, r2
 80023c6:	600b      	str	r3, [r1, #0]
 80023c8:	f380 8810 	msr	PRIMASK, r0
 80023cc:	2320      	movs	r3, #32
 80023ce:	67e3      	str	r3, [r4, #124]	@ 0x7c
 80023d0:	2300      	movs	r3, #0
 80023d2:	0020      	movs	r0, r4
 80023d4:	66e3      	str	r3, [r4, #108]	@ 0x6c
 80023d6:	f7ff fe97 	bl	8002108 <HAL_UART_TxCpltCallback>
 80023da:	e72a      	b.n	8002232 <HAL_UART_IRQHandler+0x112>
 80023dc:	0000080f 	.word	0x0000080f
 80023e0:	04000120 	.word	0x04000120
 80023e4:	0800210d 	.word	0x0800210d
 80023e8:	fffffeff 	.word	0xfffffeff
 80023ec:	fffffedf 	.word	0xfffffedf

080023f0 <UART_SetConfig>:
 80023f0:	b5f8      	push	{r3, r4, r5, r6, r7, lr}
 80023f2:	0004      	movs	r4, r0
 80023f4:	6925      	ldr	r5, [r4, #16]
 80023f6:	68a1      	ldr	r1, [r4, #8]
 80023f8:	6802      	ldr	r2, [r0, #0]
 80023fa:	4329      	orrs	r1, r5
 80023fc:	6965      	ldr	r5, [r4, #20]
 80023fe:	69c3      	ldr	r3, [r0, #28]
 8002400:	4329      	orrs	r1, r5
 8002402:	6810      	ldr	r0, [r2, #0]
 8002404:	4d5c      	ldr	r5, [pc, #368]	@ (8002578 <UART_SetConfig+0x188>)
 8002406:	4319      	orrs	r1, r3
 8002408:	4028      	ands	r0, r5
 800240a:	4301      	orrs	r1, r0
 800240c:	6011      	str	r1, [r2, #0]
 800240e:	6851      	ldr	r1, [r2, #4]
 8002410:	485a      	ldr	r0, [pc, #360]	@ (800257c <UART_SetConfig+0x18c>)
 8002412:	4d5b      	ldr	r5, [pc, #364]	@ (8002580 <UART_SetConfig+0x190>)
 8002414:	4001      	ands	r1, r0
 8002416:	68e0      	ldr	r0, [r4, #12]
 8002418:	4301      	orrs	r1, r0
 800241a:	6051      	str	r1, [r2, #4]
 800241c:	69a0      	ldr	r0, [r4, #24]
 800241e:	42aa      	cmp	r2, r5
 8002420:	d001      	beq.n	8002426 <UART_SetConfig+0x36>
 8002422:	6a21      	ldr	r1, [r4, #32]
 8002424:	4308      	orrs	r0, r1
 8002426:	6891      	ldr	r1, [r2, #8]
 8002428:	4e56      	ldr	r6, [pc, #344]	@ (8002584 <UART_SetConfig+0x194>)
 800242a:	4031      	ands	r1, r6
 800242c:	4301      	orrs	r1, r0
 800242e:	6091      	str	r1, [r2, #8]
 8002430:	4955      	ldr	r1, [pc, #340]	@ (8002588 <UART_SetConfig+0x198>)
 8002432:	428a      	cmp	r2, r1
 8002434:	d118      	bne.n	8002468 <UART_SetConfig+0x78>
 8002436:	200c      	movs	r0, #12
 8002438:	4954      	ldr	r1, [pc, #336]	@ (800258c <UART_SetConfig+0x19c>)
 800243a:	6cca      	ldr	r2, [r1, #76]	@ 0x4c
 800243c:	4002      	ands	r2, r0
 800243e:	2a08      	cmp	r2, #8
 8002440:	d100      	bne.n	8002444 <UART_SetConfig+0x54>
 8002442:	e082      	b.n	800254a <UART_SetConfig+0x15a>
 8002444:	d80b      	bhi.n	800245e <UART_SetConfig+0x6e>
 8002446:	2180      	movs	r1, #128	@ 0x80
 8002448:	0209      	lsls	r1, r1, #8
 800244a:	2a00      	cmp	r2, #0
 800244c:	d000      	beq.n	8002450 <UART_SetConfig+0x60>
 800244e:	e072      	b.n	8002536 <UART_SetConfig+0x146>
 8002450:	428b      	cmp	r3, r1
 8002452:	d04a      	beq.n	80024ea <UART_SetConfig+0xfa>
 8002454:	f7ff f9a6 	bl	80017a4 <HAL_RCC_GetPCLK1Freq>
 8002458:	2800      	cmp	r0, #0
 800245a:	d017      	beq.n	800248c <UART_SetConfig+0x9c>
 800245c:	e083      	b.n	8002566 <UART_SetConfig+0x176>
 800245e:	2a0c      	cmp	r2, #12
 8002460:	d100      	bne.n	8002464 <UART_SetConfig+0x74>
 8002462:	e06d      	b.n	8002540 <UART_SetConfig+0x150>
 8002464:	2001      	movs	r0, #1
 8002466:	e012      	b.n	800248e <UART_SetConfig+0x9e>
 8002468:	42aa      	cmp	r2, r5
 800246a:	d1fb      	bne.n	8002464 <UART_SetConfig+0x74>
 800246c:	21c0      	movs	r1, #192	@ 0xc0
 800246e:	2080      	movs	r0, #128	@ 0x80
 8002470:	4a46      	ldr	r2, [pc, #280]	@ (800258c <UART_SetConfig+0x19c>)
 8002472:	0109      	lsls	r1, r1, #4
 8002474:	6cd3      	ldr	r3, [r2, #76]	@ 0x4c
 8002476:	0100      	lsls	r0, r0, #4
 8002478:	400b      	ands	r3, r1
 800247a:	4283      	cmp	r3, r0
 800247c:	d010      	beq.n	80024a0 <UART_SetConfig+0xb0>
 800247e:	d80a      	bhi.n	8002496 <UART_SetConfig+0xa6>
 8002480:	2b00      	cmp	r3, #0
 8002482:	d12f      	bne.n	80024e4 <UART_SetConfig+0xf4>
 8002484:	f7ff f98e 	bl	80017a4 <HAL_RCC_GetPCLK1Freq>
 8002488:	2800      	cmp	r0, #0
 800248a:	d110      	bne.n	80024ae <UART_SetConfig+0xbe>
 800248c:	2000      	movs	r0, #0
 800248e:	2300      	movs	r3, #0
 8002490:	66a3      	str	r3, [r4, #104]	@ 0x68
 8002492:	66e3      	str	r3, [r4, #108]	@ 0x6c
 8002494:	bdf8      	pop	{r3, r4, r5, r6, r7, pc}
 8002496:	428b      	cmp	r3, r1
 8002498:	d1e4      	bne.n	8002464 <UART_SetConfig+0x74>
 800249a:	2080      	movs	r0, #128	@ 0x80
 800249c:	0200      	lsls	r0, r0, #8
 800249e:	e006      	b.n	80024ae <UART_SetConfig+0xbe>
 80024a0:	6810      	ldr	r0, [r2, #0]
 80024a2:	4b3b      	ldr	r3, [pc, #236]	@ (8002590 <UART_SetConfig+0x1a0>)
 80024a4:	06c0      	lsls	r0, r0, #27
 80024a6:	17c0      	asrs	r0, r0, #31
 80024a8:	4018      	ands	r0, r3
 80024aa:	4b3a      	ldr	r3, [pc, #232]	@ (8002594 <UART_SetConfig+0x1a4>)
 80024ac:	18c0      	adds	r0, r0, r3
 80024ae:	2303      	movs	r3, #3
 80024b0:	6862      	ldr	r2, [r4, #4]
 80024b2:	4353      	muls	r3, r2
 80024b4:	4283      	cmp	r3, r0
 80024b6:	d8d5      	bhi.n	8002464 <UART_SetConfig+0x74>
 80024b8:	0313      	lsls	r3, r2, #12
 80024ba:	4283      	cmp	r3, r0
 80024bc:	d3d2      	bcc.n	8002464 <UART_SetConfig+0x74>
 80024be:	2100      	movs	r1, #0
 80024c0:	0e07      	lsrs	r7, r0, #24
 80024c2:	0206      	lsls	r6, r0, #8
 80024c4:	0850      	lsrs	r0, r2, #1
 80024c6:	1836      	adds	r6, r6, r0
 80024c8:	414f      	adcs	r7, r1
 80024ca:	000b      	movs	r3, r1
 80024cc:	0030      	movs	r0, r6
 80024ce:	0039      	movs	r1, r7
 80024d0:	f7fd feb0 	bl	8000234 <__aeabi_uldivmod>
 80024d4:	4b30      	ldr	r3, [pc, #192]	@ (8002598 <UART_SetConfig+0x1a8>)
 80024d6:	18c2      	adds	r2, r0, r3
 80024d8:	4b30      	ldr	r3, [pc, #192]	@ (800259c <UART_SetConfig+0x1ac>)
 80024da:	429a      	cmp	r2, r3
 80024dc:	d8c2      	bhi.n	8002464 <UART_SetConfig+0x74>
 80024de:	6823      	ldr	r3, [r4, #0]
 80024e0:	60d8      	str	r0, [r3, #12]
 80024e2:	e7d3      	b.n	800248c <UART_SetConfig+0x9c>
 80024e4:	f7fe fe06 	bl	80010f4 <HAL_RCC_GetSysClockFreq>
 80024e8:	e7ce      	b.n	8002488 <UART_SetConfig+0x98>
 80024ea:	f7ff f95b 	bl	80017a4 <HAL_RCC_GetPCLK1Freq>
 80024ee:	1e03      	subs	r3, r0, #0
 80024f0:	d0cc      	beq.n	800248c <UART_SetConfig+0x9c>
 80024f2:	6861      	ldr	r1, [r4, #4]
 80024f4:	005b      	lsls	r3, r3, #1
 80024f6:	0848      	lsrs	r0, r1, #1
 80024f8:	1818      	adds	r0, r3, r0
 80024fa:	f7fd fe0f 	bl	800011c <__udivsi3>
 80024fe:	0002      	movs	r2, r0
 8002500:	4b27      	ldr	r3, [pc, #156]	@ (80025a0 <UART_SetConfig+0x1b0>)
 8002502:	3a10      	subs	r2, #16
 8002504:	429a      	cmp	r2, r3
 8002506:	d8ad      	bhi.n	8002464 <UART_SetConfig+0x74>
 8002508:	230f      	movs	r3, #15
 800250a:	0002      	movs	r2, r0
 800250c:	0700      	lsls	r0, r0, #28
 800250e:	439a      	bics	r2, r3
 8002510:	b293      	uxth	r3, r2
 8002512:	0f40      	lsrs	r0, r0, #29
 8002514:	6822      	ldr	r2, [r4, #0]
 8002516:	4303      	orrs	r3, r0
 8002518:	60d3      	str	r3, [r2, #12]
 800251a:	e7b7      	b.n	800248c <UART_SetConfig+0x9c>
 800251c:	f7fe fdea 	bl	80010f4 <HAL_RCC_GetSysClockFreq>
 8002520:	e7e5      	b.n	80024ee <UART_SetConfig+0xfe>
 8002522:	680b      	ldr	r3, [r1, #0]
 8002524:	4013      	ands	r3, r2
 8002526:	1e5a      	subs	r2, r3, #1
 8002528:	4193      	sbcs	r3, r2
 800252a:	4a19      	ldr	r2, [pc, #100]	@ (8002590 <UART_SetConfig+0x1a0>)
 800252c:	425b      	negs	r3, r3
 800252e:	4013      	ands	r3, r2
 8002530:	4a18      	ldr	r2, [pc, #96]	@ (8002594 <UART_SetConfig+0x1a4>)
 8002532:	189b      	adds	r3, r3, r2
 8002534:	e7dd      	b.n	80024f2 <UART_SetConfig+0x102>
 8002536:	428b      	cmp	r3, r1
 8002538:	d0f0      	beq.n	800251c <UART_SetConfig+0x12c>
 800253a:	f7fe fddb 	bl	80010f4 <HAL_RCC_GetSysClockFreq>
 800253e:	e78b      	b.n	8002458 <UART_SetConfig+0x68>
 8002540:	2080      	movs	r0, #128	@ 0x80
 8002542:	0200      	lsls	r0, r0, #8
 8002544:	4283      	cmp	r3, r0
 8002546:	d0d4      	beq.n	80024f2 <UART_SetConfig+0x102>
 8002548:	e00d      	b.n	8002566 <UART_SetConfig+0x176>
 800254a:	2080      	movs	r0, #128	@ 0x80
 800254c:	2210      	movs	r2, #16
 800254e:	0200      	lsls	r0, r0, #8
 8002550:	4283      	cmp	r3, r0
 8002552:	d0e6      	beq.n	8002522 <UART_SetConfig+0x132>
 8002554:	6808      	ldr	r0, [r1, #0]
 8002556:	4010      	ands	r0, r2
 8002558:	1e43      	subs	r3, r0, #1
 800255a:	4198      	sbcs	r0, r3
 800255c:	4b0c      	ldr	r3, [pc, #48]	@ (8002590 <UART_SetConfig+0x1a0>)
 800255e:	4240      	negs	r0, r0
 8002560:	4018      	ands	r0, r3
 8002562:	4b0c      	ldr	r3, [pc, #48]	@ (8002594 <UART_SetConfig+0x1a4>)
 8002564:	18c0      	adds	r0, r0, r3
 8002566:	6861      	ldr	r1, [r4, #4]
 8002568:	084b      	lsrs	r3, r1, #1
 800256a:	1818      	adds	r0, r3, r0
 800256c:	f7fd fdd6 	bl	800011c <__udivsi3>
 8002570:	0002      	movs	r2, r0
 8002572:	4b0b      	ldr	r3, [pc, #44]	@ (80025a0 <UART_SetConfig+0x1b0>)
 8002574:	3a10      	subs	r2, #16
 8002576:	e7b0      	b.n	80024da <UART_SetConfig+0xea>
 8002578:	efff69f3 	.word	0xefff69f3
 800257c:	ffffcfff 	.word	0xffffcfff
 8002580:	40004800 	.word	0x40004800
 8002584:	fffff4ff 	.word	0xfffff4ff
 8002588:	40004400 	.word	0x40004400
 800258c:	40021000 	.word	0x40021000
 8002590:	ff48e500 	.word	0xff48e500
 8002594:	00f42400 	.word	0x00f42400
 8002598:	fffffd00 	.word	0xfffffd00
 800259c:	000ffcff 	.word	0x000ffcff
 80025a0:	0000ffef 	.word	0x0000ffef

080025a4 <UART_AdvFeatureConfig>:
 80025a4:	6a43      	ldr	r3, [r0, #36]	@ 0x24
 80025a6:	b530      	push	{r4, r5, lr}
 80025a8:	071a      	lsls	r2, r3, #28
 80025aa:	d506      	bpl.n	80025ba <UART_AdvFeatureConfig+0x16>
 80025ac:	6801      	ldr	r1, [r0, #0]
 80025ae:	4c28      	ldr	r4, [pc, #160]	@ (8002650 <UART_AdvFeatureConfig+0xac>)
 80025b0:	684a      	ldr	r2, [r1, #4]
 80025b2:	4022      	ands	r2, r4
 80025b4:	6b44      	ldr	r4, [r0, #52]	@ 0x34
 80025b6:	4322      	orrs	r2, r4
 80025b8:	604a      	str	r2, [r1, #4]
 80025ba:	07da      	lsls	r2, r3, #31
 80025bc:	d506      	bpl.n	80025cc <UART_AdvFeatureConfig+0x28>
 80025be:	6801      	ldr	r1, [r0, #0]
 80025c0:	4c24      	ldr	r4, [pc, #144]	@ (8002654 <UART_AdvFeatureConfig+0xb0>)
 80025c2:	684a      	ldr	r2, [r1, #4]
 80025c4:	4022      	ands	r2, r4
 80025c6:	6a84      	ldr	r4, [r0, #40]	@ 0x28
 80025c8:	4322      	orrs	r2, r4
 80025ca:	604a      	str	r2, [r1, #4]
 80025cc:	079a      	lsls	r2, r3, #30
 80025ce:	d506      	bpl.n	80025de <UART_AdvFeatureConfig+0x3a>
 80025d0:	6801      	ldr	r1, [r0, #0]
 80025d2:	4c21      	ldr	r4, [pc, #132]	@ (8002658 <UART_AdvFeatureConfig+0xb4>)
 80025d4:	684a      	ldr	r2, [r1, #4]
 80025d6:	4022      	ands	r2, r4
 80025d8:	6ac4      	ldr	r4, [r0, #44]	@ 0x2c
 80025da:	4322      	orrs	r2, r4
 80025dc:	604a      	str	r2, [r1, #4]
 80025de:	075a      	lsls	r2, r3, #29
 80025e0:	d506      	bpl.n	80025f0 <UART_AdvFeatureConfig+0x4c>
 80025e2:	6801      	ldr	r1, [r0, #0]
 80025e4:	4c1d      	ldr	r4, [pc, #116]	@ (800265c <UART_AdvFeatureConfig+0xb8>)
 80025e6:	684a      	ldr	r2, [r1, #4]
 80025e8:	4022      	ands	r2, r4
 80025ea:	6b04      	ldr	r4, [r0, #48]	@ 0x30
 80025ec:	4322      	orrs	r2, r4
 80025ee:	604a      	str	r2, [r1, #4]
 80025f0:	06da      	lsls	r2, r3, #27
 80025f2:	d506      	bpl.n	8002602 <UART_AdvFeatureConfig+0x5e>
 80025f4:	6801      	ldr	r1, [r0, #0]
 80025f6:	4c1a      	ldr	r4, [pc, #104]	@ (8002660 <UART_AdvFeatureConfig+0xbc>)
 80025f8:	688a      	ldr	r2, [r1, #8]
 80025fa:	4022      	ands	r2, r4
 80025fc:	6b84      	ldr	r4, [r0, #56]	@ 0x38
 80025fe:	4322      	orrs	r2, r4
 8002600:	608a      	str	r2, [r1, #8]
 8002602:	069a      	lsls	r2, r3, #26
 8002604:	d506      	bpl.n	8002614 <UART_AdvFeatureConfig+0x70>
 8002606:	6801      	ldr	r1, [r0, #0]
 8002608:	4c16      	ldr	r4, [pc, #88]	@ (8002664 <UART_AdvFeatureConfig+0xc0>)
 800260a:	688a      	ldr	r2, [r1, #8]
 800260c:	4022      	ands	r2, r4
 800260e:	6bc4      	ldr	r4, [r0, #60]	@ 0x3c
 8002610:	4322      	orrs	r2, r4
 8002612:	608a      	str	r2, [r1, #8]
 8002614:	065a      	lsls	r2, r3, #25
 8002616:	d510      	bpl.n	800263a <UART_AdvFeatureConfig+0x96>
 8002618:	6801      	ldr	r1, [r0, #0]
 800261a:	4d13      	ldr	r5, [pc, #76]	@ (8002668 <UART_AdvFeatureConfig+0xc4>)
 800261c:	684a      	ldr	r2, [r1, #4]
 800261e:	6c04      	ldr	r4, [r0, #64]	@ 0x40
 8002620:	402a      	ands	r2, r5
 8002622:	4322      	orrs	r2, r4
 8002624:	604a      	str	r2, [r1, #4]
 8002626:	2280      	movs	r2, #128	@ 0x80
 8002628:	0352      	lsls	r2, r2, #13
 800262a:	4294      	cmp	r4, r2
 800262c:	d105      	bne.n	800263a <UART_AdvFeatureConfig+0x96>
 800262e:	684a      	ldr	r2, [r1, #4]
 8002630:	4c0e      	ldr	r4, [pc, #56]	@ (800266c <UART_AdvFeatureConfig+0xc8>)
 8002632:	4022      	ands	r2, r4
 8002634:	6c44      	ldr	r4, [r0, #68]	@ 0x44
 8002636:	4322      	orrs	r2, r4
 8002638:	604a      	str	r2, [r1, #4]
 800263a:	061b      	lsls	r3, r3, #24
 800263c:	d506      	bpl.n	800264c <UART_AdvFeatureConfig+0xa8>
 800263e:	6802      	ldr	r2, [r0, #0]
 8002640:	490b      	ldr	r1, [pc, #44]	@ (8002670 <UART_AdvFeatureConfig+0xcc>)
 8002642:	6853      	ldr	r3, [r2, #4]
 8002644:	400b      	ands	r3, r1
 8002646:	6c81      	ldr	r1, [r0, #72]	@ 0x48
 8002648:	430b      	orrs	r3, r1
 800264a:	6053      	str	r3, [r2, #4]
 800264c:	bd30      	pop	{r4, r5, pc}
 800264e:	46c0      	nop			@ (mov r8, r8)
 8002650:	ffff7fff 	.word	0xffff7fff
 8002654:	fffdffff 	.word	0xfffdffff
 8002658:	fffeffff 	.word	0xfffeffff
 800265c:	fffbffff 	.word	0xfffbffff
 8002660:	ffffefff 	.word	0xffffefff
 8002664:	ffffdfff 	.word	0xffffdfff
 8002668:	ffefffff 	.word	0xffefffff
 800266c:	ff9fffff 	.word	0xff9fffff
 8002670:	fff7ffff 	.word	0xfff7ffff

08002674 <UART_WaitOnFlagUntilTimeout>:
 8002674:	b5f7      	push	{r0, r1, r2, r4, r5, r6, r7, lr}
 8002676:	0004      	movs	r4, r0
 8002678:	000d      	movs	r5, r1
 800267a:	0017      	movs	r7, r2
 800267c:	9300      	str	r3, [sp, #0]
 800267e:	6822      	ldr	r2, [r4, #0]
 8002680:	69d3      	ldr	r3, [r2, #28]
 8002682:	402b      	ands	r3, r5
 8002684:	1b5b      	subs	r3, r3, r5
 8002686:	4259      	negs	r1, r3
 8002688:	414b      	adcs	r3, r1
 800268a:	42bb      	cmp	r3, r7
 800268c:	d001      	beq.n	8002692 <UART_WaitOnFlagUntilTimeout+0x1e>
 800268e:	2000      	movs	r0, #0
 8002690:	e025      	b.n	80026de <UART_WaitOnFlagUntilTimeout+0x6a>
 8002692:	9b08      	ldr	r3, [sp, #32]
 8002694:	3301      	adds	r3, #1
 8002696:	d0f3      	beq.n	8002680 <UART_WaitOnFlagUntilTimeout+0xc>
 8002698:	f7fe fa5a 	bl	8000b50 <HAL_GetTick>
 800269c:	9b00      	ldr	r3, [sp, #0]
 800269e:	1ac0      	subs	r0, r0, r3
 80026a0:	9b08      	ldr	r3, [sp, #32]
 80026a2:	4298      	cmp	r0, r3
 80026a4:	d82c      	bhi.n	8002700 <UART_WaitOnFlagUntilTimeout+0x8c>
 80026a6:	2b00      	cmp	r3, #0
 80026a8:	d02a      	beq.n	8002700 <UART_WaitOnFlagUntilTimeout+0x8c>
 80026aa:	6823      	ldr	r3, [r4, #0]
 80026ac:	681a      	ldr	r2, [r3, #0]
 80026ae:	0752      	lsls	r2, r2, #29
 80026b0:	d5e5      	bpl.n	800267e <UART_WaitOnFlagUntilTimeout+0xa>
 80026b2:	002a      	movs	r2, r5
 80026b4:	2140      	movs	r1, #64	@ 0x40
 80026b6:	3a40      	subs	r2, #64	@ 0x40
 80026b8:	438a      	bics	r2, r1
 80026ba:	d0e0      	beq.n	800267e <UART_WaitOnFlagUntilTimeout+0xa>
 80026bc:	69da      	ldr	r2, [r3, #28]
 80026be:	2608      	movs	r6, #8
 80026c0:	0011      	movs	r1, r2
 80026c2:	4031      	ands	r1, r6
 80026c4:	9101      	str	r1, [sp, #4]
 80026c6:	4232      	tst	r2, r6
 80026c8:	d00a      	beq.n	80026e0 <UART_WaitOnFlagUntilTimeout+0x6c>
 80026ca:	0020      	movs	r0, r4
 80026cc:	621e      	str	r6, [r3, #32]
 80026ce:	f7ff fced 	bl	80020ac <UART_EndRxTransfer>
 80026d2:	19a3      	adds	r3, r4, r6
 80026d4:	67de      	str	r6, [r3, #124]	@ 0x7c
 80026d6:	2300      	movs	r3, #0
 80026d8:	2001      	movs	r0, #1
 80026da:	3478      	adds	r4, #120	@ 0x78
 80026dc:	7023      	strb	r3, [r4, #0]
 80026de:	bdfe      	pop	{r1, r2, r3, r4, r5, r6, r7, pc}
 80026e0:	2280      	movs	r2, #128	@ 0x80
 80026e2:	69d9      	ldr	r1, [r3, #28]
 80026e4:	0112      	lsls	r2, r2, #4
 80026e6:	4211      	tst	r1, r2
 80026e8:	d0c9      	beq.n	800267e <UART_WaitOnFlagUntilTimeout+0xa>
 80026ea:	621a      	str	r2, [r3, #32]
 80026ec:	0020      	movs	r0, r4
 80026ee:	f7ff fcdd 	bl	80020ac <UART_EndRxTransfer>
 80026f2:	0023      	movs	r3, r4
 80026f4:	2220      	movs	r2, #32
 80026f6:	3308      	adds	r3, #8
 80026f8:	67da      	str	r2, [r3, #124]	@ 0x7c
 80026fa:	9b01      	ldr	r3, [sp, #4]
 80026fc:	3478      	adds	r4, #120	@ 0x78
 80026fe:	7023      	strb	r3, [r4, #0]
 8002700:	2003      	movs	r0, #3
 8002702:	e7ec      	b.n	80026de <UART_WaitOnFlagUntilTimeout+0x6a>

08002704 <UART_CheckIdleState>:
 8002704:	0003      	movs	r3, r0
 8002706:	b573      	push	{r0, r1, r4, r5, r6, lr}
 8002708:	2500      	movs	r5, #0
 800270a:	0004      	movs	r4, r0
 800270c:	3308      	adds	r3, #8
 800270e:	67dd      	str	r5, [r3, #124]	@ 0x7c
 8002710:	f7fe fa1e 	bl	8000b50 <HAL_GetTick>
 8002714:	6823      	ldr	r3, [r4, #0]
 8002716:	0006      	movs	r6, r0
 8002718:	681b      	ldr	r3, [r3, #0]
 800271a:	071b      	lsls	r3, r3, #28
 800271c:	d51d      	bpl.n	800275a <UART_CheckIdleState+0x56>
 800271e:	2180      	movs	r1, #128	@ 0x80
 8002720:	4b26      	ldr	r3, [pc, #152]	@ (80027bc <UART_CheckIdleState+0xb8>)
 8002722:	002a      	movs	r2, r5
 8002724:	9300      	str	r3, [sp, #0]
 8002726:	0389      	lsls	r1, r1, #14
 8002728:	0003      	movs	r3, r0
 800272a:	0020      	movs	r0, r4
 800272c:	f7ff ffa2 	bl	8002674 <UART_WaitOnFlagUntilTimeout>
 8002730:	42a8      	cmp	r0, r5
 8002732:	d012      	beq.n	800275a <UART_CheckIdleState+0x56>
 8002734:	f3ef 8110 	mrs	r1, PRIMASK
 8002738:	2301      	movs	r3, #1
 800273a:	f383 8810 	msr	PRIMASK, r3
 800273e:	2080      	movs	r0, #128	@ 0x80
 8002740:	6822      	ldr	r2, [r4, #0]
 8002742:	6813      	ldr	r3, [r2, #0]
 8002744:	4383      	bics	r3, r0
 8002746:	6013      	str	r3, [r2, #0]
 8002748:	f381 8810 	msr	PRIMASK, r1
 800274c:	2320      	movs	r3, #32
 800274e:	67e3      	str	r3, [r4, #124]	@ 0x7c
 8002750:	2003      	movs	r0, #3
 8002752:	2300      	movs	r3, #0
 8002754:	3478      	adds	r4, #120	@ 0x78
 8002756:	7023      	strb	r3, [r4, #0]
 8002758:	bd76      	pop	{r1, r2, r4, r5, r6, pc}
 800275a:	0025      	movs	r5, r4
 800275c:	cd08      	ldmia	r5!, {r3}
 800275e:	681b      	ldr	r3, [r3, #0]
 8002760:	075b      	lsls	r3, r3, #29
 8002762:	d523      	bpl.n	80027ac <UART_CheckIdleState+0xa8>
 8002764:	2180      	movs	r1, #128	@ 0x80
 8002766:	4b15      	ldr	r3, [pc, #84]	@ (80027bc <UART_CheckIdleState+0xb8>)
 8002768:	2200      	movs	r2, #0
 800276a:	9300      	str	r3, [sp, #0]
 800276c:	0020      	movs	r0, r4
 800276e:	0033      	movs	r3, r6
 8002770:	03c9      	lsls	r1, r1, #15
 8002772:	f7ff ff7f 	bl	8002674 <UART_WaitOnFlagUntilTimeout>
 8002776:	2800      	cmp	r0, #0
 8002778:	d018      	beq.n	80027ac <UART_CheckIdleState+0xa8>
 800277a:	f3ef 8010 	mrs	r0, PRIMASK
 800277e:	2201      	movs	r2, #1
 8002780:	f382 8810 	msr	PRIMASK, r2
 8002784:	6821      	ldr	r1, [r4, #0]
 8002786:	4e0e      	ldr	r6, [pc, #56]	@ (80027c0 <UART_CheckIdleState+0xbc>)
 8002788:	680b      	ldr	r3, [r1, #0]
 800278a:	4033      	ands	r3, r6
 800278c:	600b      	str	r3, [r1, #0]
 800278e:	f380 8810 	msr	PRIMASK, r0
 8002792:	f3ef 8010 	mrs	r0, PRIMASK
 8002796:	f382 8810 	msr	PRIMASK, r2
 800279a:	6821      	ldr	r1, [r4, #0]
 800279c:	688b      	ldr	r3, [r1, #8]
 800279e:	4393      	bics	r3, r2
 80027a0:	608b      	str	r3, [r1, #8]
 80027a2:	f380 8810 	msr	PRIMASK, r0
 80027a6:	2320      	movs	r3, #32
 80027a8:	67eb      	str	r3, [r5, #124]	@ 0x7c
 80027aa:	e7d1      	b.n	8002750 <UART_CheckIdleState+0x4c>
 80027ac:	2320      	movs	r3, #32
 80027ae:	2000      	movs	r0, #0
 80027b0:	67e3      	str	r3, [r4, #124]	@ 0x7c
 80027b2:	67eb      	str	r3, [r5, #124]	@ 0x7c
 80027b4:	6620      	str	r0, [r4, #96]	@ 0x60
 80027b6:	6660      	str	r0, [r4, #100]	@ 0x64
 80027b8:	e7cb      	b.n	8002752 <UART_CheckIdleState+0x4e>
 80027ba:	46c0      	nop			@ (mov r8, r8)
 80027bc:	01ffffff 	.word	0x01ffffff
 80027c0:	fffffedf 	.word	0xfffffedf

080027c4 <HAL_UART_Init>:
 80027c4:	b510      	push	{r4, lr}
 80027c6:	1e04      	subs	r4, r0, #0
 80027c8:	d101      	bne.n	80027ce <HAL_UART_Init+0xa>
 80027ca:	2001      	movs	r0, #1
 80027cc:	bd10      	pop	{r4, pc}
 80027ce:	6fc3      	ldr	r3, [r0, #124]	@ 0x7c
 80027d0:	2b00      	cmp	r3, #0
 80027d2:	d104      	bne.n	80027de <HAL_UART_Init+0x1a>
 80027d4:	0002      	movs	r2, r0
 80027d6:	3278      	adds	r2, #120	@ 0x78
 80027d8:	7013      	strb	r3, [r2, #0]
 80027da:	f7fe f8f3 	bl	80009c4 <HAL_UART_MspInit>
 80027de:	2324      	movs	r3, #36	@ 0x24
 80027e0:	2101      	movs	r1, #1
 80027e2:	6822      	ldr	r2, [r4, #0]
 80027e4:	67e3      	str	r3, [r4, #124]	@ 0x7c
 80027e6:	6813      	ldr	r3, [r2, #0]
 80027e8:	438b      	bics	r3, r1
 80027ea:	6013      	str	r3, [r2, #0]
 80027ec:	6a63      	ldr	r3, [r4, #36]	@ 0x24
 80027ee:	2b00      	cmp	r3, #0
 80027f0:	d002      	beq.n	80027f8 <HAL_UART_Init+0x34>
 80027f2:	0020      	movs	r0, r4
 80027f4:	f7ff fed6 	bl	80025a4 <UART_AdvFeatureConfig>
 80027f8:	0020      	movs	r0, r4
 80027fa:	f7ff fdf9 	bl	80023f0 <UART_SetConfig>
 80027fe:	2801      	cmp	r0, #1
 8002800:	d0e3      	beq.n	80027ca <HAL_UART_Init+0x6>
 8002802:	6823      	ldr	r3, [r4, #0]
 8002804:	4907      	ldr	r1, [pc, #28]	@ (8002824 <HAL_UART_Init+0x60>)
 8002806:	685a      	ldr	r2, [r3, #4]
 8002808:	0020      	movs	r0, r4
 800280a:	400a      	ands	r2, r1
 800280c:	212a      	movs	r1, #42	@ 0x2a
 800280e:	605a      	str	r2, [r3, #4]
 8002810:	689a      	ldr	r2, [r3, #8]
 8002812:	438a      	bics	r2, r1
 8002814:	609a      	str	r2, [r3, #8]
 8002816:	2201      	movs	r2, #1
 8002818:	6819      	ldr	r1, [r3, #0]
 800281a:	430a      	orrs	r2, r1
 800281c:	601a      	str	r2, [r3, #0]
 800281e:	f7ff ff71 	bl	8002704 <UART_CheckIdleState>
 8002822:	e7d3      	b.n	80027cc <HAL_UART_Init+0x8>
 8002824:	ffffb7ff 	.word	0xffffb7ff

08002828 <HAL_UARTEx_WakeupCallback>:
 8002828:	4770      	bx	lr
	...

0800282c <osKernelInitialize>:
 800282c:	f3ef 8305 	mrs	r3, IPSR
 8002830:	2b00      	cmp	r3, #0
 8002832:	d002      	beq.n	800283a <osKernelInitialize+0xe>
 8002834:	2006      	movs	r0, #6
 8002836:	4240      	negs	r0, r0
 8002838:	e00c      	b.n	8002854 <osKernelInitialize+0x28>
 800283a:	f3ef 8210 	mrs	r2, PRIMASK
 800283e:	4b07      	ldr	r3, [pc, #28]	@ (800285c <osKernelInitialize+0x30>)
 8002840:	2a00      	cmp	r2, #0
 8002842:	d002      	beq.n	800284a <osKernelInitialize+0x1e>
 8002844:	681a      	ldr	r2, [r3, #0]
 8002846:	2a02      	cmp	r2, #2
 8002848:	d0f4      	beq.n	8002834 <osKernelInitialize+0x8>
 800284a:	6818      	ldr	r0, [r3, #0]
 800284c:	2800      	cmp	r0, #0
 800284e:	d102      	bne.n	8002856 <osKernelInitialize+0x2a>
 8002850:	2201      	movs	r2, #1
 8002852:	601a      	str	r2, [r3, #0]
 8002854:	4770      	bx	lr
 8002856:	2001      	movs	r0, #1
 8002858:	e7ed      	b.n	8002836 <osKernelInitialize+0xa>
 800285a:	46c0      	nop			@ (mov r8, r8)
 800285c:	20000ab4 	.word	0x20000ab4

08002860 <osKernelStart>:
 8002860:	b510      	push	{r4, lr}
 8002862:	f3ef 8305 	mrs	r3, IPSR
 8002866:	2b00      	cmp	r3, #0
 8002868:	d002      	beq.n	8002870 <osKernelStart+0x10>
 800286a:	2006      	movs	r0, #6
 800286c:	4240      	negs	r0, r0
 800286e:	e00f      	b.n	8002890 <osKernelStart+0x30>
 8002870:	f3ef 8210 	mrs	r2, PRIMASK
 8002874:	4b08      	ldr	r3, [pc, #32]	@ (8002898 <osKernelStart+0x38>)
 8002876:	2a00      	cmp	r2, #0
 8002878:	d002      	beq.n	8002880 <osKernelStart+0x20>
 800287a:	681a      	ldr	r2, [r3, #0]
 800287c:	2a02      	cmp	r2, #2
 800287e:	d0f4      	beq.n	800286a <osKernelStart+0xa>
 8002880:	681a      	ldr	r2, [r3, #0]
 8002882:	2a01      	cmp	r2, #1
 8002884:	d105      	bne.n	8002892 <osKernelStart+0x32>
 8002886:	3201      	adds	r2, #1
 8002888:	601a      	str	r2, [r3, #0]
 800288a:	f000 fce9 	bl	8003260 <vTaskStartScheduler>
 800288e:	2000      	movs	r0, #0
 8002890:	bd10      	pop	{r4, pc}
 8002892:	2001      	movs	r0, #1
 8002894:	e7ea      	b.n	800286c <osKernelStart+0xc>
 8002896:	46c0      	nop			@ (mov r8, r8)
 8002898:	20000ab4 	.word	0x20000ab4

0800289c <osThreadNew>:
 800289c:	b5f0      	push	{r4, r5, r6, r7, lr}
 800289e:	0014      	movs	r4, r2
 80028a0:	2200      	movs	r2, #0
 80028a2:	b089      	sub	sp, #36	@ 0x24
 80028a4:	9105      	str	r1, [sp, #20]
 80028a6:	9207      	str	r2, [sp, #28]
 80028a8:	f3ef 8205 	mrs	r2, IPSR
 80028ac:	2a00      	cmp	r2, #0
 80028ae:	d132      	bne.n	8002916 <osThreadNew+0x7a>
 80028b0:	f3ef 8210 	mrs	r2, PRIMASK
 80028b4:	2a00      	cmp	r2, #0
 80028b6:	d003      	beq.n	80028c0 <osThreadNew+0x24>
 80028b8:	4a23      	ldr	r2, [pc, #140]	@ (8002948 <osThreadNew+0xac>)
 80028ba:	6812      	ldr	r2, [r2, #0]
 80028bc:	2a02      	cmp	r2, #2
 80028be:	d02a      	beq.n	8002916 <osThreadNew+0x7a>
 80028c0:	2800      	cmp	r0, #0
 80028c2:	d028      	beq.n	8002916 <osThreadNew+0x7a>
 80028c4:	2c00      	cmp	r4, #0
 80028c6:	d02f      	beq.n	8002928 <osThreadNew+0x8c>
 80028c8:	69a5      	ldr	r5, [r4, #24]
 80028ca:	2d00      	cmp	r5, #0
 80028cc:	d006      	beq.n	80028dc <osThreadNew+0x40>
 80028ce:	1e69      	subs	r1, r5, #1
 80028d0:	2200      	movs	r2, #0
 80028d2:	2937      	cmp	r1, #55	@ 0x37
 80028d4:	d903      	bls.n	80028de <osThreadNew+0x42>
 80028d6:	0010      	movs	r0, r2
 80028d8:	b009      	add	sp, #36	@ 0x24
 80028da:	bdf0      	pop	{r4, r5, r6, r7, pc}
 80028dc:	2518      	movs	r5, #24
 80028de:	6861      	ldr	r1, [r4, #4]
 80028e0:	2200      	movs	r2, #0
 80028e2:	07c9      	lsls	r1, r1, #31
 80028e4:	d4f7      	bmi.n	80028d6 <osThreadNew+0x3a>
 80028e6:	6966      	ldr	r6, [r4, #20]
 80028e8:	3280      	adds	r2, #128	@ 0x80
 80028ea:	2e00      	cmp	r6, #0
 80028ec:	d000      	beq.n	80028f0 <osThreadNew+0x54>
 80028ee:	08b2      	lsrs	r2, r6, #2
 80028f0:	68a7      	ldr	r7, [r4, #8]
 80028f2:	6821      	ldr	r1, [r4, #0]
 80028f4:	68e3      	ldr	r3, [r4, #12]
 80028f6:	2f00      	cmp	r7, #0
 80028f8:	d00f      	beq.n	800291a <osThreadNew+0x7e>
 80028fa:	2b5b      	cmp	r3, #91	@ 0x5b
 80028fc:	d90b      	bls.n	8002916 <osThreadNew+0x7a>
 80028fe:	6924      	ldr	r4, [r4, #16]
 8002900:	2c00      	cmp	r4, #0
 8002902:	d008      	beq.n	8002916 <osThreadNew+0x7a>
 8002904:	2e00      	cmp	r6, #0
 8002906:	d006      	beq.n	8002916 <osThreadNew+0x7a>
 8002908:	9b05      	ldr	r3, [sp, #20]
 800290a:	9702      	str	r7, [sp, #8]
 800290c:	9401      	str	r4, [sp, #4]
 800290e:	9500      	str	r5, [sp, #0]
 8002910:	f000 fc53 	bl	80031ba <xTaskCreateStatic>
 8002914:	9007      	str	r0, [sp, #28]
 8002916:	9a07      	ldr	r2, [sp, #28]
 8002918:	e7dd      	b.n	80028d6 <osThreadNew+0x3a>
 800291a:	2b00      	cmp	r3, #0
 800291c:	d1fb      	bne.n	8002916 <osThreadNew+0x7a>
 800291e:	6924      	ldr	r4, [r4, #16]
 8002920:	2c00      	cmp	r4, #0
 8002922:	d1f8      	bne.n	8002916 <osThreadNew+0x7a>
 8002924:	000c      	movs	r4, r1
 8002926:	e001      	b.n	800292c <osThreadNew+0x90>
 8002928:	2518      	movs	r5, #24
 800292a:	2280      	movs	r2, #128	@ 0x80
 800292c:	a907      	add	r1, sp, #28
 800292e:	9101      	str	r1, [sp, #4]
 8002930:	9b05      	ldr	r3, [sp, #20]
 8002932:	0021      	movs	r1, r4
 8002934:	b292      	uxth	r2, r2
 8002936:	9500      	str	r5, [sp, #0]
 8002938:	f000 fc65 	bl	8003206 <xTaskCreate>
 800293c:	2801      	cmp	r0, #1
 800293e:	d0ea      	beq.n	8002916 <osThreadNew+0x7a>
 8002940:	2300      	movs	r3, #0
 8002942:	9307      	str	r3, [sp, #28]
 8002944:	e7e7      	b.n	8002916 <osThreadNew+0x7a>
 8002946:	46c0      	nop			@ (mov r8, r8)
 8002948:	20000ab4 	.word	0x20000ab4

0800294c <osDelay>:
 800294c:	b510      	push	{r4, lr}
 800294e:	f3ef 8305 	mrs	r3, IPSR
 8002952:	2b00      	cmp	r3, #0
 8002954:	d002      	beq.n	800295c <osDelay+0x10>
 8002956:	2006      	movs	r0, #6
 8002958:	4240      	negs	r0, r0
 800295a:	bd10      	pop	{r4, pc}
 800295c:	f3ef 8310 	mrs	r3, PRIMASK
 8002960:	2b00      	cmp	r3, #0
 8002962:	d003      	beq.n	800296c <osDelay+0x20>
 8002964:	4b04      	ldr	r3, [pc, #16]	@ (8002978 <osDelay+0x2c>)
 8002966:	681b      	ldr	r3, [r3, #0]
 8002968:	2b02      	cmp	r3, #2
 800296a:	d0f4      	beq.n	8002956 <osDelay+0xa>
 800296c:	2800      	cmp	r0, #0
 800296e:	d001      	beq.n	8002974 <osDelay+0x28>
 8002970:	f000 fda8 	bl	80034c4 <vTaskDelay>
 8002974:	2000      	movs	r0, #0
 8002976:	e7f0      	b.n	800295a <osDelay+0xe>
 8002978:	20000ab4 	.word	0x20000ab4

0800297c <vApplicationGetIdleTaskMemory>:
 800297c:	4b03      	ldr	r3, [pc, #12]	@ (800298c <vApplicationGetIdleTaskMemory+0x10>)
 800297e:	6003      	str	r3, [r0, #0]
 8002980:	4b03      	ldr	r3, [pc, #12]	@ (8002990 <vApplicationGetIdleTaskMemory+0x14>)
 8002982:	600b      	str	r3, [r1, #0]
 8002984:	2380      	movs	r3, #128	@ 0x80
 8002986:	6013      	str	r3, [r2, #0]
 8002988:	4770      	bx	lr
 800298a:	46c0      	nop			@ (mov r8, r8)
 800298c:	20000a58 	.word	0x20000a58
 8002990:	20000858 	.word	0x20000858

08002994 <vApplicationGetTimerTaskMemory>:
 8002994:	4b03      	ldr	r3, [pc, #12]	@ (80029a4 <vApplicationGetTimerTaskMemory+0x10>)
 8002996:	6003      	str	r3, [r0, #0]
 8002998:	4b03      	ldr	r3, [pc, #12]	@ (80029a8 <vApplicationGetTimerTaskMemory+0x14>)
 800299a:	600b      	str	r3, [r1, #0]
 800299c:	2380      	movs	r3, #128	@ 0x80
 800299e:	005b      	lsls	r3, r3, #1
 80029a0:	6013      	str	r3, [r2, #0]
 80029a2:	4770      	bx	lr
 80029a4:	200007fc 	.word	0x200007fc
 80029a8:	200003fc 	.word	0x200003fc

080029ac <vListInitialise>:
 80029ac:	0003      	movs	r3, r0
 80029ae:	3308      	adds	r3, #8
 80029b0:	2201      	movs	r2, #1
 80029b2:	6043      	str	r3, [r0, #4]
 80029b4:	60c3      	str	r3, [r0, #12]
 80029b6:	6103      	str	r3, [r0, #16]
 80029b8:	2300      	movs	r3, #0
 80029ba:	4252      	negs	r2, r2
 80029bc:	6082      	str	r2, [r0, #8]
 80029be:	6003      	str	r3, [r0, #0]
 80029c0:	4770      	bx	lr

080029c2 <vListInitialiseItem>:
 80029c2:	2300      	movs	r3, #0
 80029c4:	6103      	str	r3, [r0, #16]
 80029c6:	4770      	bx	lr

080029c8 <vListInsertEnd>:
 80029c8:	6843      	ldr	r3, [r0, #4]
 80029ca:	689a      	ldr	r2, [r3, #8]
 80029cc:	604b      	str	r3, [r1, #4]
 80029ce:	608a      	str	r2, [r1, #8]
 80029d0:	6051      	str	r1, [r2, #4]
 80029d2:	6099      	str	r1, [r3, #8]
 80029d4:	6803      	ldr	r3, [r0, #0]
 80029d6:	6108      	str	r0, [r1, #16]
 80029d8:	3301      	adds	r3, #1
 80029da:	6003      	str	r3, [r0, #0]
 80029dc:	4770      	bx	lr

080029de <vListInsert>:
 80029de:	0002      	movs	r2, r0
 80029e0:	b530      	push	{r4, r5, lr}
 80029e2:	680c      	ldr	r4, [r1, #0]
 80029e4:	3208      	adds	r2, #8
 80029e6:	1c63      	adds	r3, r4, #1
 80029e8:	d10a      	bne.n	8002a00 <vListInsert+0x22>
 80029ea:	6903      	ldr	r3, [r0, #16]
 80029ec:	685a      	ldr	r2, [r3, #4]
 80029ee:	604a      	str	r2, [r1, #4]
 80029f0:	6091      	str	r1, [r2, #8]
 80029f2:	608b      	str	r3, [r1, #8]
 80029f4:	6059      	str	r1, [r3, #4]
 80029f6:	6803      	ldr	r3, [r0, #0]
 80029f8:	6108      	str	r0, [r1, #16]
 80029fa:	3301      	adds	r3, #1
 80029fc:	6003      	str	r3, [r0, #0]
 80029fe:	bd30      	pop	{r4, r5, pc}
 8002a00:	0013      	movs	r3, r2
 8002a02:	6852      	ldr	r2, [r2, #4]
 8002a04:	6815      	ldr	r5, [r2, #0]
 8002a06:	42a5      	cmp	r5, r4
 8002a08:	d9fa      	bls.n	8002a00 <vListInsert+0x22>
 8002a0a:	e7ef      	b.n	80029ec <vListInsert+0xe>

08002a0c <uxListRemove>:
 8002a0c:	6903      	ldr	r3, [r0, #16]
 8002a0e:	6841      	ldr	r1, [r0, #4]
 8002a10:	6882      	ldr	r2, [r0, #8]
 8002a12:	608a      	str	r2, [r1, #8]
 8002a14:	6051      	str	r1, [r2, #4]
 8002a16:	6859      	ldr	r1, [r3, #4]
 8002a18:	4281      	cmp	r1, r0
 8002a1a:	d100      	bne.n	8002a1e <uxListRemove+0x12>
 8002a1c:	605a      	str	r2, [r3, #4]
 8002a1e:	2200      	movs	r2, #0
 8002a20:	6102      	str	r2, [r0, #16]
 8002a22:	681a      	ldr	r2, [r3, #0]
 8002a24:	3a01      	subs	r2, #1
 8002a26:	601a      	str	r2, [r3, #0]
 8002a28:	6818      	ldr	r0, [r3, #0]
 8002a2a:	4770      	bx	lr

08002a2c <prvIsQueueEmpty>:
 8002a2c:	b510      	push	{r4, lr}
 8002a2e:	0004      	movs	r4, r0
 8002a30:	f001 f8b0 	bl	8003b94 <vPortEnterCritical>
 8002a34:	6ba4      	ldr	r4, [r4, #56]	@ 0x38
 8002a36:	f001 f8b9 	bl	8003bac <vPortExitCritical>
 8002a3a:	4260      	negs	r0, r4
 8002a3c:	4160      	adcs	r0, r4
 8002a3e:	bd10      	pop	{r4, pc}

08002a40 <prvCopyDataToQueue>:
 8002a40:	b570      	push	{r4, r5, r6, lr}
 8002a42:	0016      	movs	r6, r2
 8002a44:	6c02      	ldr	r2, [r0, #64]	@ 0x40
 8002a46:	0004      	movs	r4, r0
 8002a48:	6b85      	ldr	r5, [r0, #56]	@ 0x38
 8002a4a:	2a00      	cmp	r2, #0
 8002a4c:	d109      	bne.n	8002a62 <prvCopyDataToQueue+0x22>
 8002a4e:	6806      	ldr	r6, [r0, #0]
 8002a50:	2e00      	cmp	r6, #0
 8002a52:	d112      	bne.n	8002a7a <prvCopyDataToQueue+0x3a>
 8002a54:	6880      	ldr	r0, [r0, #8]
 8002a56:	f000 fe3b 	bl	80036d0 <xTaskPriorityDisinherit>
 8002a5a:	60a6      	str	r6, [r4, #8]
 8002a5c:	3501      	adds	r5, #1
 8002a5e:	63a5      	str	r5, [r4, #56]	@ 0x38
 8002a60:	bd70      	pop	{r4, r5, r6, pc}
 8002a62:	2e00      	cmp	r6, #0
 8002a64:	d10e      	bne.n	8002a84 <prvCopyDataToQueue+0x44>
 8002a66:	6840      	ldr	r0, [r0, #4]
 8002a68:	f001 f9e4 	bl	8003e34 <memcpy>
 8002a6c:	6863      	ldr	r3, [r4, #4]
 8002a6e:	6c22      	ldr	r2, [r4, #64]	@ 0x40
 8002a70:	189b      	adds	r3, r3, r2
 8002a72:	68a2      	ldr	r2, [r4, #8]
 8002a74:	6063      	str	r3, [r4, #4]
 8002a76:	4293      	cmp	r3, r2
 8002a78:	d201      	bcs.n	8002a7e <prvCopyDataToQueue+0x3e>
 8002a7a:	2000      	movs	r0, #0
 8002a7c:	e7ee      	b.n	8002a5c <prvCopyDataToQueue+0x1c>
 8002a7e:	6823      	ldr	r3, [r4, #0]
 8002a80:	6063      	str	r3, [r4, #4]
 8002a82:	e7fa      	b.n	8002a7a <prvCopyDataToQueue+0x3a>
 8002a84:	68c0      	ldr	r0, [r0, #12]
 8002a86:	f001 f9d5 	bl	8003e34 <memcpy>
 8002a8a:	6c22      	ldr	r2, [r4, #64]	@ 0x40
 8002a8c:	68e3      	ldr	r3, [r4, #12]
 8002a8e:	4251      	negs	r1, r2
 8002a90:	1a9b      	subs	r3, r3, r2
 8002a92:	6822      	ldr	r2, [r4, #0]
 8002a94:	60e3      	str	r3, [r4, #12]
 8002a96:	4293      	cmp	r3, r2
 8002a98:	d202      	bcs.n	8002aa0 <prvCopyDataToQueue+0x60>
 8002a9a:	68a3      	ldr	r3, [r4, #8]
 8002a9c:	185b      	adds	r3, r3, r1
 8002a9e:	60e3      	str	r3, [r4, #12]
 8002aa0:	2000      	movs	r0, #0
 8002aa2:	2e02      	cmp	r6, #2
 8002aa4:	d1da      	bne.n	8002a5c <prvCopyDataToQueue+0x1c>
 8002aa6:	002b      	movs	r3, r5
 8002aa8:	1e5a      	subs	r2, r3, #1
 8002aaa:	4193      	sbcs	r3, r2
 8002aac:	1aed      	subs	r5, r5, r3
 8002aae:	e7d5      	b.n	8002a5c <prvCopyDataToQueue+0x1c>

08002ab0 <prvCopyDataFromQueue>:
 8002ab0:	0003      	movs	r3, r0
 8002ab2:	6c1a      	ldr	r2, [r3, #64]	@ 0x40
 8002ab4:	0008      	movs	r0, r1
 8002ab6:	b510      	push	{r4, lr}
 8002ab8:	2a00      	cmp	r2, #0
 8002aba:	d00a      	beq.n	8002ad2 <prvCopyDataFromQueue+0x22>
 8002abc:	68dc      	ldr	r4, [r3, #12]
 8002abe:	6899      	ldr	r1, [r3, #8]
 8002ac0:	18a4      	adds	r4, r4, r2
 8002ac2:	60dc      	str	r4, [r3, #12]
 8002ac4:	428c      	cmp	r4, r1
 8002ac6:	d301      	bcc.n	8002acc <prvCopyDataFromQueue+0x1c>
 8002ac8:	6819      	ldr	r1, [r3, #0]
 8002aca:	60d9      	str	r1, [r3, #12]
 8002acc:	68d9      	ldr	r1, [r3, #12]
 8002ace:	f001 f9b1 	bl	8003e34 <memcpy>
 8002ad2:	bd10      	pop	{r4, pc}

08002ad4 <prvUnlockQueue>:
 8002ad4:	b570      	push	{r4, r5, r6, lr}
 8002ad6:	0004      	movs	r4, r0
 8002ad8:	0026      	movs	r6, r4
 8002ada:	3645      	adds	r6, #69	@ 0x45
 8002adc:	f001 f85a 	bl	8003b94 <vPortEnterCritical>
 8002ae0:	7835      	ldrb	r5, [r6, #0]
 8002ae2:	b26d      	sxtb	r5, r5
 8002ae4:	2d00      	cmp	r5, #0
 8002ae6:	dd02      	ble.n	8002aee <prvUnlockQueue+0x1a>
 8002ae8:	6a63      	ldr	r3, [r4, #36]	@ 0x24
 8002aea:	2b00      	cmp	r3, #0
 8002aec:	d113      	bne.n	8002b16 <prvUnlockQueue+0x42>
 8002aee:	23ff      	movs	r3, #255	@ 0xff
 8002af0:	7033      	strb	r3, [r6, #0]
 8002af2:	0026      	movs	r6, r4
 8002af4:	3644      	adds	r6, #68	@ 0x44
 8002af6:	f001 f859 	bl	8003bac <vPortExitCritical>
 8002afa:	f001 f84b 	bl	8003b94 <vPortEnterCritical>
 8002afe:	7835      	ldrb	r5, [r6, #0]
 8002b00:	b26d      	sxtb	r5, r5
 8002b02:	2d00      	cmp	r5, #0
 8002b04:	dd02      	ble.n	8002b0c <prvUnlockQueue+0x38>
 8002b06:	6923      	ldr	r3, [r4, #16]
 8002b08:	2b00      	cmp	r3, #0
 8002b0a:	d10e      	bne.n	8002b2a <prvUnlockQueue+0x56>
 8002b0c:	23ff      	movs	r3, #255	@ 0xff
 8002b0e:	7033      	strb	r3, [r6, #0]
 8002b10:	f001 f84c 	bl	8003bac <vPortExitCritical>
 8002b14:	bd70      	pop	{r4, r5, r6, pc}
 8002b16:	0020      	movs	r0, r4
 8002b18:	3024      	adds	r0, #36	@ 0x24
 8002b1a:	f000 fd4d 	bl	80035b8 <xTaskRemoveFromEventList>
 8002b1e:	2800      	cmp	r0, #0
 8002b20:	d001      	beq.n	8002b26 <prvUnlockQueue+0x52>
 8002b22:	f000 fdbf 	bl	80036a4 <vTaskMissedYield>
 8002b26:	3d01      	subs	r5, #1
 8002b28:	e7db      	b.n	8002ae2 <prvUnlockQueue+0xe>
 8002b2a:	0020      	movs	r0, r4
 8002b2c:	3010      	adds	r0, #16
 8002b2e:	f000 fd43 	bl	80035b8 <xTaskRemoveFromEventList>
 8002b32:	2800      	cmp	r0, #0
 8002b34:	d001      	beq.n	8002b3a <prvUnlockQueue+0x66>
 8002b36:	f000 fdb5 	bl	80036a4 <vTaskMissedYield>
 8002b3a:	3d01      	subs	r5, #1
 8002b3c:	e7e0      	b.n	8002b00 <prvUnlockQueue+0x2c>

08002b3e <xQueueGenericReset>:
 8002b3e:	b570      	push	{r4, r5, r6, lr}
 8002b40:	0004      	movs	r4, r0
 8002b42:	000d      	movs	r5, r1
 8002b44:	2800      	cmp	r0, #0
 8002b46:	d101      	bne.n	8002b4c <xQueueGenericReset+0xe>
 8002b48:	b672      	cpsid	i
 8002b4a:	e7fe      	b.n	8002b4a <xQueueGenericReset+0xc>
 8002b4c:	f001 f822 	bl	8003b94 <vPortEnterCritical>
 8002b50:	6c21      	ldr	r1, [r4, #64]	@ 0x40
 8002b52:	6be3      	ldr	r3, [r4, #60]	@ 0x3c
 8002b54:	6822      	ldr	r2, [r4, #0]
 8002b56:	434b      	muls	r3, r1
 8002b58:	18d0      	adds	r0, r2, r3
 8002b5a:	1a5b      	subs	r3, r3, r1
 8002b5c:	6062      	str	r2, [r4, #4]
 8002b5e:	18d2      	adds	r2, r2, r3
 8002b60:	0023      	movs	r3, r4
 8002b62:	60a0      	str	r0, [r4, #8]
 8002b64:	60e2      	str	r2, [r4, #12]
 8002b66:	2000      	movs	r0, #0
 8002b68:	22ff      	movs	r2, #255	@ 0xff
 8002b6a:	3344      	adds	r3, #68	@ 0x44
 8002b6c:	63a0      	str	r0, [r4, #56]	@ 0x38
 8002b6e:	701a      	strb	r2, [r3, #0]
 8002b70:	705a      	strb	r2, [r3, #1]
 8002b72:	4285      	cmp	r5, r0
 8002b74:	d10e      	bne.n	8002b94 <xQueueGenericReset+0x56>
 8002b76:	6923      	ldr	r3, [r4, #16]
 8002b78:	4283      	cmp	r3, r0
 8002b7a:	d007      	beq.n	8002b8c <xQueueGenericReset+0x4e>
 8002b7c:	0020      	movs	r0, r4
 8002b7e:	3010      	adds	r0, #16
 8002b80:	f000 fd1a 	bl	80035b8 <xTaskRemoveFromEventList>
 8002b84:	2800      	cmp	r0, #0
 8002b86:	d001      	beq.n	8002b8c <xQueueGenericReset+0x4e>
 8002b88:	f000 fff8 	bl	8003b7c <vPortYield>
 8002b8c:	f001 f80e 	bl	8003bac <vPortExitCritical>
 8002b90:	2001      	movs	r0, #1
 8002b92:	bd70      	pop	{r4, r5, r6, pc}
 8002b94:	0020      	movs	r0, r4
 8002b96:	3010      	adds	r0, #16
 8002b98:	f7ff ff08 	bl	80029ac <vListInitialise>
 8002b9c:	0020      	movs	r0, r4
 8002b9e:	3024      	adds	r0, #36	@ 0x24
 8002ba0:	f7ff ff04 	bl	80029ac <vListInitialise>
 8002ba4:	e7f2      	b.n	8002b8c <xQueueGenericReset+0x4e>

08002ba6 <xQueueGenericCreateStatic>:
 8002ba6:	b573      	push	{r0, r1, r4, r5, r6, lr}
 8002ba8:	001c      	movs	r4, r3
 8002baa:	ab06      	add	r3, sp, #24
 8002bac:	781d      	ldrb	r5, [r3, #0]
 8002bae:	2800      	cmp	r0, #0
 8002bb0:	d101      	bne.n	8002bb6 <xQueueGenericCreateStatic+0x10>
 8002bb2:	b672      	cpsid	i
 8002bb4:	e7fe      	b.n	8002bb4 <xQueueGenericCreateStatic+0xe>
 8002bb6:	2c00      	cmp	r4, #0
 8002bb8:	d101      	bne.n	8002bbe <xQueueGenericCreateStatic+0x18>
 8002bba:	b672      	cpsid	i
 8002bbc:	e7fe      	b.n	8002bbc <xQueueGenericCreateStatic+0x16>
 8002bbe:	2a00      	cmp	r2, #0
 8002bc0:	d003      	beq.n	8002bca <xQueueGenericCreateStatic+0x24>
 8002bc2:	2900      	cmp	r1, #0
 8002bc4:	d105      	bne.n	8002bd2 <xQueueGenericCreateStatic+0x2c>
 8002bc6:	b672      	cpsid	i
 8002bc8:	e7fe      	b.n	8002bc8 <xQueueGenericCreateStatic+0x22>
 8002bca:	2900      	cmp	r1, #0
 8002bcc:	d001      	beq.n	8002bd2 <xQueueGenericCreateStatic+0x2c>
 8002bce:	b672      	cpsid	i
 8002bd0:	e7fe      	b.n	8002bd0 <xQueueGenericCreateStatic+0x2a>
 8002bd2:	2350      	movs	r3, #80	@ 0x50
 8002bd4:	9301      	str	r3, [sp, #4]
 8002bd6:	9b01      	ldr	r3, [sp, #4]
 8002bd8:	2b50      	cmp	r3, #80	@ 0x50
 8002bda:	d001      	beq.n	8002be0 <xQueueGenericCreateStatic+0x3a>
 8002bdc:	b672      	cpsid	i
 8002bde:	e7fe      	b.n	8002bde <xQueueGenericCreateStatic+0x38>
 8002be0:	9b01      	ldr	r3, [sp, #4]
 8002be2:	0023      	movs	r3, r4
 8002be4:	2601      	movs	r6, #1
 8002be6:	3346      	adds	r3, #70	@ 0x46
 8002be8:	701e      	strb	r6, [r3, #0]
 8002bea:	2900      	cmp	r1, #0
 8002bec:	d100      	bne.n	8002bf0 <xQueueGenericCreateStatic+0x4a>
 8002bee:	0022      	movs	r2, r4
 8002bf0:	63e0      	str	r0, [r4, #60]	@ 0x3c
 8002bf2:	6421      	str	r1, [r4, #64]	@ 0x40
 8002bf4:	0020      	movs	r0, r4
 8002bf6:	2101      	movs	r1, #1
 8002bf8:	6022      	str	r2, [r4, #0]
 8002bfa:	f7ff ffa0 	bl	8002b3e <xQueueGenericReset>
 8002bfe:	0023      	movs	r3, r4
 8002c00:	334c      	adds	r3, #76	@ 0x4c
 8002c02:	0020      	movs	r0, r4
 8002c04:	701d      	strb	r5, [r3, #0]
 8002c06:	bd76      	pop	{r1, r2, r4, r5, r6, pc}

08002c08 <xQueueGenericSend>:
 8002c08:	b5f0      	push	{r4, r5, r6, r7, lr}
 8002c0a:	b085      	sub	sp, #20
 8002c0c:	0004      	movs	r4, r0
 8002c0e:	000f      	movs	r7, r1
 8002c10:	001e      	movs	r6, r3
 8002c12:	9201      	str	r2, [sp, #4]
 8002c14:	2800      	cmp	r0, #0
 8002c16:	d101      	bne.n	8002c1c <xQueueGenericSend+0x14>
 8002c18:	b672      	cpsid	i
 8002c1a:	e7fe      	b.n	8002c1a <xQueueGenericSend+0x12>
 8002c1c:	2900      	cmp	r1, #0
 8002c1e:	d104      	bne.n	8002c2a <xQueueGenericSend+0x22>
 8002c20:	6c03      	ldr	r3, [r0, #64]	@ 0x40
 8002c22:	2b00      	cmp	r3, #0
 8002c24:	d001      	beq.n	8002c2a <xQueueGenericSend+0x22>
 8002c26:	b672      	cpsid	i
 8002c28:	e7fe      	b.n	8002c28 <xQueueGenericSend+0x20>
 8002c2a:	2e02      	cmp	r6, #2
 8002c2c:	d104      	bne.n	8002c38 <xQueueGenericSend+0x30>
 8002c2e:	6be3      	ldr	r3, [r4, #60]	@ 0x3c
 8002c30:	2b01      	cmp	r3, #1
 8002c32:	d001      	beq.n	8002c38 <xQueueGenericSend+0x30>
 8002c34:	b672      	cpsid	i
 8002c36:	e7fe      	b.n	8002c36 <xQueueGenericSend+0x2e>
 8002c38:	f000 fd3a 	bl	80036b0 <xTaskGetSchedulerState>
 8002c3c:	1e05      	subs	r5, r0, #0
 8002c3e:	d01b      	beq.n	8002c78 <xQueueGenericSend+0x70>
 8002c40:	2500      	movs	r5, #0
 8002c42:	f000 ffa7 	bl	8003b94 <vPortEnterCritical>
 8002c46:	6ba2      	ldr	r2, [r4, #56]	@ 0x38
 8002c48:	6be3      	ldr	r3, [r4, #60]	@ 0x3c
 8002c4a:	429a      	cmp	r2, r3
 8002c4c:	d219      	bcs.n	8002c82 <xQueueGenericSend+0x7a>
 8002c4e:	0032      	movs	r2, r6
 8002c50:	0039      	movs	r1, r7
 8002c52:	0020      	movs	r0, r4
 8002c54:	f7ff fef4 	bl	8002a40 <prvCopyDataToQueue>
 8002c58:	6a63      	ldr	r3, [r4, #36]	@ 0x24
 8002c5a:	2b00      	cmp	r3, #0
 8002c5c:	d003      	beq.n	8002c66 <xQueueGenericSend+0x5e>
 8002c5e:	0020      	movs	r0, r4
 8002c60:	3024      	adds	r0, #36	@ 0x24
 8002c62:	f000 fca9 	bl	80035b8 <xTaskRemoveFromEventList>
 8002c66:	2800      	cmp	r0, #0
 8002c68:	d001      	beq.n	8002c6e <xQueueGenericSend+0x66>
 8002c6a:	f000 ff87 	bl	8003b7c <vPortYield>
 8002c6e:	f000 ff9d 	bl	8003bac <vPortExitCritical>
 8002c72:	2001      	movs	r0, #1
 8002c74:	b005      	add	sp, #20
 8002c76:	bdf0      	pop	{r4, r5, r6, r7, pc}
 8002c78:	9b01      	ldr	r3, [sp, #4]
 8002c7a:	2b00      	cmp	r3, #0
 8002c7c:	d0e1      	beq.n	8002c42 <xQueueGenericSend+0x3a>
 8002c7e:	b672      	cpsid	i
 8002c80:	e7fe      	b.n	8002c80 <xQueueGenericSend+0x78>
 8002c82:	2e02      	cmp	r6, #2
 8002c84:	d0e3      	beq.n	8002c4e <xQueueGenericSend+0x46>
 8002c86:	9b01      	ldr	r3, [sp, #4]
 8002c88:	2b00      	cmp	r3, #0
 8002c8a:	d103      	bne.n	8002c94 <xQueueGenericSend+0x8c>
 8002c8c:	f000 ff8e 	bl	8003bac <vPortExitCritical>
 8002c90:	2000      	movs	r0, #0
 8002c92:	e7ef      	b.n	8002c74 <xQueueGenericSend+0x6c>
 8002c94:	2d00      	cmp	r5, #0
 8002c96:	d102      	bne.n	8002c9e <xQueueGenericSend+0x96>
 8002c98:	a802      	add	r0, sp, #8
 8002c9a:	f000 fcc7 	bl	800362c <vTaskInternalSetTimeOutState>
 8002c9e:	f000 ff85 	bl	8003bac <vPortExitCritical>
 8002ca2:	f000 fb13 	bl	80032cc <vTaskSuspendAll>
 8002ca6:	f000 ff75 	bl	8003b94 <vPortEnterCritical>
 8002caa:	0022      	movs	r2, r4
 8002cac:	3244      	adds	r2, #68	@ 0x44
 8002cae:	7813      	ldrb	r3, [r2, #0]
 8002cb0:	b25b      	sxtb	r3, r3
 8002cb2:	3301      	adds	r3, #1
 8002cb4:	d101      	bne.n	8002cba <xQueueGenericSend+0xb2>
 8002cb6:	2300      	movs	r3, #0
 8002cb8:	7013      	strb	r3, [r2, #0]
 8002cba:	0022      	movs	r2, r4
 8002cbc:	3245      	adds	r2, #69	@ 0x45
 8002cbe:	7813      	ldrb	r3, [r2, #0]
 8002cc0:	b25b      	sxtb	r3, r3
 8002cc2:	3301      	adds	r3, #1
 8002cc4:	d101      	bne.n	8002cca <xQueueGenericSend+0xc2>
 8002cc6:	2300      	movs	r3, #0
 8002cc8:	7013      	strb	r3, [r2, #0]
 8002cca:	f000 ff6f 	bl	8003bac <vPortExitCritical>
 8002cce:	a901      	add	r1, sp, #4
 8002cd0:	a802      	add	r0, sp, #8
 8002cd2:	f000 fcb7 	bl	8003644 <xTaskCheckForTimeOut>
 8002cd6:	2800      	cmp	r0, #0
 8002cd8:	d11f      	bne.n	8002d1a <xQueueGenericSend+0x112>
 8002cda:	f000 ff5b 	bl	8003b94 <vPortEnterCritical>
 8002cde:	6ba2      	ldr	r2, [r4, #56]	@ 0x38
 8002ce0:	6be3      	ldr	r3, [r4, #60]	@ 0x3c
 8002ce2:	429a      	cmp	r2, r3
 8002ce4:	d110      	bne.n	8002d08 <xQueueGenericSend+0x100>
 8002ce6:	f000 ff61 	bl	8003bac <vPortExitCritical>
 8002cea:	0020      	movs	r0, r4
 8002cec:	9901      	ldr	r1, [sp, #4]
 8002cee:	3010      	adds	r0, #16
 8002cf0:	f000 fc38 	bl	8003564 <vTaskPlaceOnEventList>
 8002cf4:	0020      	movs	r0, r4
 8002cf6:	f7ff feed 	bl	8002ad4 <prvUnlockQueue>
 8002cfa:	f000 fb7b 	bl	80033f4 <xTaskResumeAll>
 8002cfe:	2800      	cmp	r0, #0
 8002d00:	d109      	bne.n	8002d16 <xQueueGenericSend+0x10e>
 8002d02:	f000 ff3b 	bl	8003b7c <vPortYield>
 8002d06:	e006      	b.n	8002d16 <xQueueGenericSend+0x10e>
 8002d08:	f000 ff50 	bl	8003bac <vPortExitCritical>
 8002d0c:	0020      	movs	r0, r4
 8002d0e:	f7ff fee1 	bl	8002ad4 <prvUnlockQueue>
 8002d12:	f000 fb6f 	bl	80033f4 <xTaskResumeAll>
 8002d16:	2501      	movs	r5, #1
 8002d18:	e793      	b.n	8002c42 <xQueueGenericSend+0x3a>
 8002d1a:	0020      	movs	r0, r4
 8002d1c:	f7ff feda 	bl	8002ad4 <prvUnlockQueue>
 8002d20:	f000 fb68 	bl	80033f4 <xTaskResumeAll>
 8002d24:	e7b4      	b.n	8002c90 <xQueueGenericSend+0x88>

08002d26 <xQueueGenericSendFromISR>:
 8002d26:	b5f0      	push	{r4, r5, r6, r7, lr}
 8002d28:	b085      	sub	sp, #20
 8002d2a:	0004      	movs	r4, r0
 8002d2c:	0017      	movs	r7, r2
 8002d2e:	001e      	movs	r6, r3
 8002d30:	9101      	str	r1, [sp, #4]
 8002d32:	2800      	cmp	r0, #0
 8002d34:	d101      	bne.n	8002d3a <xQueueGenericSendFromISR+0x14>
 8002d36:	b672      	cpsid	i
 8002d38:	e7fe      	b.n	8002d38 <xQueueGenericSendFromISR+0x12>
 8002d3a:	9b01      	ldr	r3, [sp, #4]
 8002d3c:	2b00      	cmp	r3, #0
 8002d3e:	d104      	bne.n	8002d4a <xQueueGenericSendFromISR+0x24>
 8002d40:	6c03      	ldr	r3, [r0, #64]	@ 0x40
 8002d42:	2b00      	cmp	r3, #0
 8002d44:	d001      	beq.n	8002d4a <xQueueGenericSendFromISR+0x24>
 8002d46:	b672      	cpsid	i
 8002d48:	e7fe      	b.n	8002d48 <xQueueGenericSendFromISR+0x22>
 8002d4a:	2e02      	cmp	r6, #2
 8002d4c:	d104      	bne.n	8002d58 <xQueueGenericSendFromISR+0x32>
 8002d4e:	6be3      	ldr	r3, [r4, #60]	@ 0x3c
 8002d50:	2b01      	cmp	r3, #1
 8002d52:	d001      	beq.n	8002d58 <xQueueGenericSendFromISR+0x32>
 8002d54:	b672      	cpsid	i
 8002d56:	e7fe      	b.n	8002d56 <xQueueGenericSendFromISR+0x30>
 8002d58:	f000 ff36 	bl	8003bc8 <ulSetInterruptMaskFromISR>
 8002d5c:	6ba2      	ldr	r2, [r4, #56]	@ 0x38
 8002d5e:	6be3      	ldr	r3, [r4, #60]	@ 0x3c
 8002d60:	9003      	str	r0, [sp, #12]
 8002d62:	429a      	cmp	r2, r3
 8002d64:	d302      	bcc.n	8002d6c <xQueueGenericSendFromISR+0x46>
 8002d66:	2500      	movs	r5, #0
 8002d68:	2e02      	cmp	r6, #2
 8002d6a:	d119      	bne.n	8002da0 <xQueueGenericSendFromISR+0x7a>
 8002d6c:	0023      	movs	r3, r4
 8002d6e:	3345      	adds	r3, #69	@ 0x45
 8002d70:	9302      	str	r3, [sp, #8]
 8002d72:	781d      	ldrb	r5, [r3, #0]
 8002d74:	0032      	movs	r2, r6
 8002d76:	b26d      	sxtb	r5, r5
 8002d78:	0020      	movs	r0, r4
 8002d7a:	9901      	ldr	r1, [sp, #4]
 8002d7c:	f7ff fe60 	bl	8002a40 <prvCopyDataToQueue>
 8002d80:	1c6b      	adds	r3, r5, #1
 8002d82:	d113      	bne.n	8002dac <xQueueGenericSendFromISR+0x86>
 8002d84:	6a63      	ldr	r3, [r4, #36]	@ 0x24
 8002d86:	2b00      	cmp	r3, #0
 8002d88:	d009      	beq.n	8002d9e <xQueueGenericSendFromISR+0x78>
 8002d8a:	0020      	movs	r0, r4
 8002d8c:	3024      	adds	r0, #36	@ 0x24
 8002d8e:	f000 fc13 	bl	80035b8 <xTaskRemoveFromEventList>
 8002d92:	2800      	cmp	r0, #0
 8002d94:	d003      	beq.n	8002d9e <xQueueGenericSendFromISR+0x78>
 8002d96:	2f00      	cmp	r7, #0
 8002d98:	d001      	beq.n	8002d9e <xQueueGenericSendFromISR+0x78>
 8002d9a:	2301      	movs	r3, #1
 8002d9c:	603b      	str	r3, [r7, #0]
 8002d9e:	2501      	movs	r5, #1
 8002da0:	9803      	ldr	r0, [sp, #12]
 8002da2:	f000 ff15 	bl	8003bd0 <vClearInterruptMaskFromISR>
 8002da6:	0028      	movs	r0, r5
 8002da8:	b005      	add	sp, #20
 8002daa:	bdf0      	pop	{r4, r5, r6, r7, pc}
 8002dac:	9b02      	ldr	r3, [sp, #8]
 8002dae:	3501      	adds	r5, #1
 8002db0:	b26d      	sxtb	r5, r5
 8002db2:	701d      	strb	r5, [r3, #0]
 8002db4:	e7f3      	b.n	8002d9e <xQueueGenericSendFromISR+0x78>

08002db6 <xQueueReceive>:
 8002db6:	b5f0      	push	{r4, r5, r6, r7, lr}
 8002db8:	b085      	sub	sp, #20
 8002dba:	0004      	movs	r4, r0
 8002dbc:	000e      	movs	r6, r1
 8002dbe:	9201      	str	r2, [sp, #4]
 8002dc0:	2800      	cmp	r0, #0
 8002dc2:	d101      	bne.n	8002dc8 <xQueueReceive+0x12>
 8002dc4:	b672      	cpsid	i
 8002dc6:	e7fe      	b.n	8002dc6 <xQueueReceive+0x10>
 8002dc8:	2900      	cmp	r1, #0
 8002dca:	d104      	bne.n	8002dd6 <xQueueReceive+0x20>
 8002dcc:	6c03      	ldr	r3, [r0, #64]	@ 0x40
 8002dce:	2b00      	cmp	r3, #0
 8002dd0:	d001      	beq.n	8002dd6 <xQueueReceive+0x20>
 8002dd2:	b672      	cpsid	i
 8002dd4:	e7fe      	b.n	8002dd4 <xQueueReceive+0x1e>
 8002dd6:	f000 fc6b 	bl	80036b0 <xTaskGetSchedulerState>
 8002dda:	1e05      	subs	r5, r0, #0
 8002ddc:	d01b      	beq.n	8002e16 <xQueueReceive+0x60>
 8002dde:	2500      	movs	r5, #0
 8002de0:	f000 fed8 	bl	8003b94 <vPortEnterCritical>
 8002de4:	6ba7      	ldr	r7, [r4, #56]	@ 0x38
 8002de6:	2f00      	cmp	r7, #0
 8002de8:	d01a      	beq.n	8002e20 <xQueueReceive+0x6a>
 8002dea:	0031      	movs	r1, r6
 8002dec:	0020      	movs	r0, r4
 8002dee:	3f01      	subs	r7, #1
 8002df0:	f7ff fe5e 	bl	8002ab0 <prvCopyDataFromQueue>
 8002df4:	63a7      	str	r7, [r4, #56]	@ 0x38
 8002df6:	6923      	ldr	r3, [r4, #16]
 8002df8:	2b00      	cmp	r3, #0
 8002dfa:	d007      	beq.n	8002e0c <xQueueReceive+0x56>
 8002dfc:	0020      	movs	r0, r4
 8002dfe:	3010      	adds	r0, #16
 8002e00:	f000 fbda 	bl	80035b8 <xTaskRemoveFromEventList>
 8002e04:	2800      	cmp	r0, #0
 8002e06:	d001      	beq.n	8002e0c <xQueueReceive+0x56>
 8002e08:	f000 feb8 	bl	8003b7c <vPortYield>
 8002e0c:	f000 fece 	bl	8003bac <vPortExitCritical>
 8002e10:	2001      	movs	r0, #1
 8002e12:	b005      	add	sp, #20
 8002e14:	bdf0      	pop	{r4, r5, r6, r7, pc}
 8002e16:	9b01      	ldr	r3, [sp, #4]
 8002e18:	2b00      	cmp	r3, #0
 8002e1a:	d0e1      	beq.n	8002de0 <xQueueReceive+0x2a>
 8002e1c:	b672      	cpsid	i
 8002e1e:	e7fe      	b.n	8002e1e <xQueueReceive+0x68>
 8002e20:	9b01      	ldr	r3, [sp, #4]
 8002e22:	2b00      	cmp	r3, #0
 8002e24:	d103      	bne.n	8002e2e <xQueueReceive+0x78>
 8002e26:	f000 fec1 	bl	8003bac <vPortExitCritical>
 8002e2a:	2000      	movs	r0, #0
 8002e2c:	e7f1      	b.n	8002e12 <xQueueReceive+0x5c>
 8002e2e:	2d00      	cmp	r5, #0
 8002e30:	d102      	bne.n	8002e38 <xQueueReceive+0x82>
 8002e32:	a802      	add	r0, sp, #8
 8002e34:	f000 fbfa 	bl	800362c <vTaskInternalSetTimeOutState>
 8002e38:	f000 feb8 	bl	8003bac <vPortExitCritical>
 8002e3c:	f000 fa46 	bl	80032cc <vTaskSuspendAll>
 8002e40:	f000 fea8 	bl	8003b94 <vPortEnterCritical>
 8002e44:	0022      	movs	r2, r4
 8002e46:	3244      	adds	r2, #68	@ 0x44
 8002e48:	7813      	ldrb	r3, [r2, #0]
 8002e4a:	b25b      	sxtb	r3, r3
 8002e4c:	3301      	adds	r3, #1
 8002e4e:	d101      	bne.n	8002e54 <xQueueReceive+0x9e>
 8002e50:	2300      	movs	r3, #0
 8002e52:	7013      	strb	r3, [r2, #0]
 8002e54:	0022      	movs	r2, r4
 8002e56:	3245      	adds	r2, #69	@ 0x45
 8002e58:	7813      	ldrb	r3, [r2, #0]
 8002e5a:	b25b      	sxtb	r3, r3
 8002e5c:	3301      	adds	r3, #1
 8002e5e:	d101      	bne.n	8002e64 <xQueueReceive+0xae>
 8002e60:	2300      	movs	r3, #0
 8002e62:	7013      	strb	r3, [r2, #0]
 8002e64:	f000 fea2 	bl	8003bac <vPortExitCritical>
 8002e68:	a901      	add	r1, sp, #4
 8002e6a:	a802      	add	r0, sp, #8
 8002e6c:	f000 fbea 	bl	8003644 <xTaskCheckForTimeOut>
 8002e70:	2800      	cmp	r0, #0
 8002e72:	d11a      	bne.n	8002eaa <xQueueReceive+0xf4>
 8002e74:	0020      	movs	r0, r4
 8002e76:	f7ff fdd9 	bl	8002a2c <prvIsQueueEmpty>
 8002e7a:	2800      	cmp	r0, #0
 8002e7c:	d00f      	beq.n	8002e9e <xQueueReceive+0xe8>
 8002e7e:	0020      	movs	r0, r4
 8002e80:	9901      	ldr	r1, [sp, #4]
 8002e82:	3024      	adds	r0, #36	@ 0x24
 8002e84:	f000 fb6e 	bl	8003564 <vTaskPlaceOnEventList>
 8002e88:	0020      	movs	r0, r4
 8002e8a:	f7ff fe23 	bl	8002ad4 <prvUnlockQueue>
 8002e8e:	f000 fab1 	bl	80033f4 <xTaskResumeAll>
 8002e92:	2800      	cmp	r0, #0
 8002e94:	d101      	bne.n	8002e9a <xQueueReceive+0xe4>
 8002e96:	f000 fe71 	bl	8003b7c <vPortYield>
 8002e9a:	2501      	movs	r5, #1
 8002e9c:	e7a0      	b.n	8002de0 <xQueueReceive+0x2a>
 8002e9e:	0020      	movs	r0, r4
 8002ea0:	f7ff fe18 	bl	8002ad4 <prvUnlockQueue>
 8002ea4:	f000 faa6 	bl	80033f4 <xTaskResumeAll>
 8002ea8:	e7f7      	b.n	8002e9a <xQueueReceive+0xe4>
 8002eaa:	0020      	movs	r0, r4
 8002eac:	f7ff fe12 	bl	8002ad4 <prvUnlockQueue>
 8002eb0:	f000 faa0 	bl	80033f4 <xTaskResumeAll>
 8002eb4:	0020      	movs	r0, r4
 8002eb6:	f7ff fdb9 	bl	8002a2c <prvIsQueueEmpty>
 8002eba:	2800      	cmp	r0, #0
 8002ebc:	d0ed      	beq.n	8002e9a <xQueueReceive+0xe4>
 8002ebe:	e7b4      	b.n	8002e2a <xQueueReceive+0x74>

08002ec0 <vQueueAddToRegistry>:
 8002ec0:	2300      	movs	r3, #0
 8002ec2:	b570      	push	{r4, r5, r6, lr}
 8002ec4:	4a06      	ldr	r2, [pc, #24]	@ (8002ee0 <vQueueAddToRegistry+0x20>)
 8002ec6:	00dd      	lsls	r5, r3, #3
 8002ec8:	18ac      	adds	r4, r5, r2
 8002eca:	6826      	ldr	r6, [r4, #0]
 8002ecc:	2e00      	cmp	r6, #0
 8002ece:	d102      	bne.n	8002ed6 <vQueueAddToRegistry+0x16>
 8002ed0:	50a9      	str	r1, [r5, r2]
 8002ed2:	6060      	str	r0, [r4, #4]
 8002ed4:	bd70      	pop	{r4, r5, r6, pc}
 8002ed6:	3301      	adds	r3, #1
 8002ed8:	2b08      	cmp	r3, #8
 8002eda:	d1f4      	bne.n	8002ec6 <vQueueAddToRegistry+0x6>
 8002edc:	e7fa      	b.n	8002ed4 <vQueueAddToRegistry+0x14>
 8002ede:	46c0      	nop			@ (mov r8, r8)
 8002ee0:	20000ab8 	.word	0x20000ab8

08002ee4 <vQueueWaitForMessageRestricted>:
 8002ee4:	b570      	push	{r4, r5, r6, lr}
 8002ee6:	0004      	movs	r4, r0
 8002ee8:	0016      	movs	r6, r2
 8002eea:	000d      	movs	r5, r1
 8002eec:	f000 fe52 	bl	8003b94 <vPortEnterCritical>
 8002ef0:	0022      	movs	r2, r4
 8002ef2:	3244      	adds	r2, #68	@ 0x44
 8002ef4:	7813      	ldrb	r3, [r2, #0]
 8002ef6:	b25b      	sxtb	r3, r3
 8002ef8:	3301      	adds	r3, #1
 8002efa:	d101      	bne.n	8002f00 <vQueueWaitForMessageRestricted+0x1c>
 8002efc:	2300      	movs	r3, #0
 8002efe:	7013      	strb	r3, [r2, #0]
 8002f00:	0022      	movs	r2, r4
 8002f02:	3245      	adds	r2, #69	@ 0x45
 8002f04:	7813      	ldrb	r3, [r2, #0]
 8002f06:	b25b      	sxtb	r3, r3
 8002f08:	3301      	adds	r3, #1
 8002f0a:	d101      	bne.n	8002f10 <vQueueWaitForMessageRestricted+0x2c>
 8002f0c:	2300      	movs	r3, #0
 8002f0e:	7013      	strb	r3, [r2, #0]
 8002f10:	f000 fe4c 	bl	8003bac <vPortExitCritical>
 8002f14:	6ba3      	ldr	r3, [r4, #56]	@ 0x38
 8002f16:	2b00      	cmp	r3, #0
 8002f18:	d105      	bne.n	8002f26 <vQueueWaitForMessageRestricted+0x42>
 8002f1a:	0020      	movs	r0, r4
 8002f1c:	0032      	movs	r2, r6
 8002f1e:	0029      	movs	r1, r5
 8002f20:	3024      	adds	r0, #36	@ 0x24
 8002f22:	f000 fb31 	bl	8003588 <vTaskPlaceOnEventListRestricted>
 8002f26:	0020      	movs	r0, r4
 8002f28:	f7ff fdd4 	bl	8002ad4 <prvUnlockQueue>
 8002f2c:	bd70      	pop	{r4, r5, r6, pc}
	...

08002f30 <prvAddNewTaskToReadyList>:
 8002f30:	b5f7      	push	{r0, r1, r2, r4, r5, r6, r7, lr}
 8002f32:	0004      	movs	r4, r0
 8002f34:	f000 fe2e 	bl	8003b94 <vPortEnterCritical>
 8002f38:	4b2a      	ldr	r3, [pc, #168]	@ (8002fe4 <prvAddNewTaskToReadyList+0xb4>)
 8002f3a:	4d2b      	ldr	r5, [pc, #172]	@ (8002fe8 <prvAddNewTaskToReadyList+0xb8>)
 8002f3c:	681a      	ldr	r2, [r3, #0]
 8002f3e:	4e2b      	ldr	r6, [pc, #172]	@ (8002fec <prvAddNewTaskToReadyList+0xbc>)
 8002f40:	3201      	adds	r2, #1
 8002f42:	601a      	str	r2, [r3, #0]
 8002f44:	682f      	ldr	r7, [r5, #0]
 8002f46:	2f00      	cmp	r7, #0
 8002f48:	d141      	bne.n	8002fce <prvAddNewTaskToReadyList+0x9e>
 8002f4a:	602c      	str	r4, [r5, #0]
 8002f4c:	681b      	ldr	r3, [r3, #0]
 8002f4e:	2b01      	cmp	r3, #1
 8002f50:	d11e      	bne.n	8002f90 <prvAddNewTaskToReadyList+0x60>
 8002f52:	2014      	movs	r0, #20
 8002f54:	4378      	muls	r0, r7
 8002f56:	3701      	adds	r7, #1
 8002f58:	1830      	adds	r0, r6, r0
 8002f5a:	f7ff fd27 	bl	80029ac <vListInitialise>
 8002f5e:	2f38      	cmp	r7, #56	@ 0x38
 8002f60:	d1f7      	bne.n	8002f52 <prvAddNewTaskToReadyList+0x22>
 8002f62:	4f23      	ldr	r7, [pc, #140]	@ (8002ff0 <prvAddNewTaskToReadyList+0xc0>)
 8002f64:	0038      	movs	r0, r7
 8002f66:	f7ff fd21 	bl	80029ac <vListInitialise>
 8002f6a:	4b22      	ldr	r3, [pc, #136]	@ (8002ff4 <prvAddNewTaskToReadyList+0xc4>)
 8002f6c:	0018      	movs	r0, r3
 8002f6e:	9301      	str	r3, [sp, #4]
 8002f70:	f7ff fd1c 	bl	80029ac <vListInitialise>
 8002f74:	4820      	ldr	r0, [pc, #128]	@ (8002ff8 <prvAddNewTaskToReadyList+0xc8>)
 8002f76:	f7ff fd19 	bl	80029ac <vListInitialise>
 8002f7a:	4820      	ldr	r0, [pc, #128]	@ (8002ffc <prvAddNewTaskToReadyList+0xcc>)
 8002f7c:	f7ff fd16 	bl	80029ac <vListInitialise>
 8002f80:	481f      	ldr	r0, [pc, #124]	@ (8003000 <prvAddNewTaskToReadyList+0xd0>)
 8002f82:	f7ff fd13 	bl	80029ac <vListInitialise>
 8002f86:	4b1f      	ldr	r3, [pc, #124]	@ (8003004 <prvAddNewTaskToReadyList+0xd4>)
 8002f88:	9a01      	ldr	r2, [sp, #4]
 8002f8a:	601f      	str	r7, [r3, #0]
 8002f8c:	4b1e      	ldr	r3, [pc, #120]	@ (8003008 <prvAddNewTaskToReadyList+0xd8>)
 8002f8e:	601a      	str	r2, [r3, #0]
 8002f90:	4a1e      	ldr	r2, [pc, #120]	@ (800300c <prvAddNewTaskToReadyList+0xdc>)
 8002f92:	6813      	ldr	r3, [r2, #0]
 8002f94:	3301      	adds	r3, #1
 8002f96:	6013      	str	r3, [r2, #0]
 8002f98:	6463      	str	r3, [r4, #68]	@ 0x44
 8002f9a:	4b1d      	ldr	r3, [pc, #116]	@ (8003010 <prvAddNewTaskToReadyList+0xe0>)
 8002f9c:	6ae2      	ldr	r2, [r4, #44]	@ 0x2c
 8002f9e:	6819      	ldr	r1, [r3, #0]
 8002fa0:	428a      	cmp	r2, r1
 8002fa2:	d900      	bls.n	8002fa6 <prvAddNewTaskToReadyList+0x76>
 8002fa4:	601a      	str	r2, [r3, #0]
 8002fa6:	2314      	movs	r3, #20
 8002fa8:	4353      	muls	r3, r2
 8002faa:	1d21      	adds	r1, r4, #4
 8002fac:	18f0      	adds	r0, r6, r3
 8002fae:	f7ff fd0b 	bl	80029c8 <vListInsertEnd>
 8002fb2:	f000 fdfb 	bl	8003bac <vPortExitCritical>
 8002fb6:	4b17      	ldr	r3, [pc, #92]	@ (8003014 <prvAddNewTaskToReadyList+0xe4>)
 8002fb8:	681b      	ldr	r3, [r3, #0]
 8002fba:	2b00      	cmp	r3, #0
 8002fbc:	d006      	beq.n	8002fcc <prvAddNewTaskToReadyList+0x9c>
 8002fbe:	682b      	ldr	r3, [r5, #0]
 8002fc0:	6ada      	ldr	r2, [r3, #44]	@ 0x2c
 8002fc2:	6ae3      	ldr	r3, [r4, #44]	@ 0x2c
 8002fc4:	429a      	cmp	r2, r3
 8002fc6:	d201      	bcs.n	8002fcc <prvAddNewTaskToReadyList+0x9c>
 8002fc8:	f000 fdd8 	bl	8003b7c <vPortYield>
 8002fcc:	bdf7      	pop	{r0, r1, r2, r4, r5, r6, r7, pc}
 8002fce:	4b11      	ldr	r3, [pc, #68]	@ (8003014 <prvAddNewTaskToReadyList+0xe4>)
 8002fd0:	681a      	ldr	r2, [r3, #0]
 8002fd2:	6ae3      	ldr	r3, [r4, #44]	@ 0x2c
 8002fd4:	2a00      	cmp	r2, #0
 8002fd6:	d1db      	bne.n	8002f90 <prvAddNewTaskToReadyList+0x60>
 8002fd8:	682a      	ldr	r2, [r5, #0]
 8002fda:	6ad2      	ldr	r2, [r2, #44]	@ 0x2c
 8002fdc:	429a      	cmp	r2, r3
 8002fde:	d8d7      	bhi.n	8002f90 <prvAddNewTaskToReadyList+0x60>
 8002fe0:	602c      	str	r4, [r5, #0]
 8002fe2:	e7d5      	b.n	8002f90 <prvAddNewTaskToReadyList+0x60>
 8002fe4:	20000b1c 	.word	0x20000b1c
 8002fe8:	20000ff0 	.word	0x20000ff0
 8002fec:	20000b90 	.word	0x20000b90
 8002ff0:	20000b7c 	.word	0x20000b7c
 8002ff4:	20000b68 	.word	0x20000b68
 8002ff8:	20000b4c 	.word	0x20000b4c
 8002ffc:	20000b38 	.word	0x20000b38
 8003000:	20000b20 	.word	0x20000b20
 8003004:	20000b64 	.word	0x20000b64
 8003008:	20000b60 	.word	0x20000b60
 800300c:	20000b00 	.word	0x20000b00
 8003010:	20000b14 	.word	0x20000b14
 8003014:	20000b10 	.word	0x20000b10

08003018 <prvAddCurrentTaskToDelayedList>:
 8003018:	b5f8      	push	{r3, r4, r5, r6, r7, lr}
 800301a:	0004      	movs	r4, r0
 800301c:	4b14      	ldr	r3, [pc, #80]	@ (8003070 <prvAddCurrentTaskToDelayedList+0x58>)
 800301e:	4d15      	ldr	r5, [pc, #84]	@ (8003074 <prvAddCurrentTaskToDelayedList+0x5c>)
 8003020:	681e      	ldr	r6, [r3, #0]
 8003022:	6828      	ldr	r0, [r5, #0]
 8003024:	000f      	movs	r7, r1
 8003026:	3004      	adds	r0, #4
 8003028:	f7ff fcf0 	bl	8002a0c <uxListRemove>
 800302c:	1c63      	adds	r3, r4, #1
 800302e:	d107      	bne.n	8003040 <prvAddCurrentTaskToDelayedList+0x28>
 8003030:	2f00      	cmp	r7, #0
 8003032:	d005      	beq.n	8003040 <prvAddCurrentTaskToDelayedList+0x28>
 8003034:	6829      	ldr	r1, [r5, #0]
 8003036:	4810      	ldr	r0, [pc, #64]	@ (8003078 <prvAddCurrentTaskToDelayedList+0x60>)
 8003038:	3104      	adds	r1, #4
 800303a:	f7ff fcc5 	bl	80029c8 <vListInsertEnd>
 800303e:	bdf8      	pop	{r3, r4, r5, r6, r7, pc}
 8003040:	682b      	ldr	r3, [r5, #0]
 8003042:	1934      	adds	r4, r6, r4
 8003044:	605c      	str	r4, [r3, #4]
 8003046:	42a6      	cmp	r6, r4
 8003048:	d906      	bls.n	8003058 <prvAddCurrentTaskToDelayedList+0x40>
 800304a:	4b0c      	ldr	r3, [pc, #48]	@ (800307c <prvAddCurrentTaskToDelayedList+0x64>)
 800304c:	6818      	ldr	r0, [r3, #0]
 800304e:	6829      	ldr	r1, [r5, #0]
 8003050:	3104      	adds	r1, #4
 8003052:	f7ff fcc4 	bl	80029de <vListInsert>
 8003056:	e7f2      	b.n	800303e <prvAddCurrentTaskToDelayedList+0x26>
 8003058:	4b09      	ldr	r3, [pc, #36]	@ (8003080 <prvAddCurrentTaskToDelayedList+0x68>)
 800305a:	6818      	ldr	r0, [r3, #0]
 800305c:	6829      	ldr	r1, [r5, #0]
 800305e:	3104      	adds	r1, #4
 8003060:	f7ff fcbd 	bl	80029de <vListInsert>
 8003064:	4b07      	ldr	r3, [pc, #28]	@ (8003084 <prvAddCurrentTaskToDelayedList+0x6c>)
 8003066:	681a      	ldr	r2, [r3, #0]
 8003068:	42a2      	cmp	r2, r4
 800306a:	d9e8      	bls.n	800303e <prvAddCurrentTaskToDelayedList+0x26>
 800306c:	601c      	str	r4, [r3, #0]
 800306e:	e7e6      	b.n	800303e <prvAddCurrentTaskToDelayedList+0x26>
 8003070:	20000b18 	.word	0x20000b18
 8003074:	20000ff0 	.word	0x20000ff0
 8003078:	20000b20 	.word	0x20000b20
 800307c:	20000b60 	.word	0x20000b60
 8003080:	20000b64 	.word	0x20000b64
 8003084:	20000afc 	.word	0x20000afc

08003088 <prvResetNextTaskUnblockTime>:
 8003088:	4a07      	ldr	r2, [pc, #28]	@ (80030a8 <prvResetNextTaskUnblockTime+0x20>)
 800308a:	6813      	ldr	r3, [r2, #0]
 800308c:	6819      	ldr	r1, [r3, #0]
 800308e:	4b07      	ldr	r3, [pc, #28]	@ (80030ac <prvResetNextTaskUnblockTime+0x24>)
 8003090:	2900      	cmp	r1, #0
 8003092:	d103      	bne.n	800309c <prvResetNextTaskUnblockTime+0x14>
 8003094:	2201      	movs	r2, #1
 8003096:	4252      	negs	r2, r2
 8003098:	601a      	str	r2, [r3, #0]
 800309a:	4770      	bx	lr
 800309c:	6812      	ldr	r2, [r2, #0]
 800309e:	68d2      	ldr	r2, [r2, #12]
 80030a0:	68d2      	ldr	r2, [r2, #12]
 80030a2:	6852      	ldr	r2, [r2, #4]
 80030a4:	e7f8      	b.n	8003098 <prvResetNextTaskUnblockTime+0x10>
 80030a6:	46c0      	nop			@ (mov r8, r8)
 80030a8:	20000b64 	.word	0x20000b64
 80030ac:	20000afc 	.word	0x20000afc

080030b0 <prvDeleteTCB>:
 80030b0:	0003      	movs	r3, r0
 80030b2:	b510      	push	{r4, lr}
 80030b4:	3359      	adds	r3, #89	@ 0x59
 80030b6:	781b      	ldrb	r3, [r3, #0]
 80030b8:	0004      	movs	r4, r0
 80030ba:	2b00      	cmp	r3, #0
 80030bc:	d106      	bne.n	80030cc <prvDeleteTCB+0x1c>
 80030be:	6b00      	ldr	r0, [r0, #48]	@ 0x30
 80030c0:	f000 fe68 	bl	8003d94 <vPortFree>
 80030c4:	0020      	movs	r0, r4
 80030c6:	f000 fe65 	bl	8003d94 <vPortFree>
 80030ca:	bd10      	pop	{r4, pc}
 80030cc:	2b01      	cmp	r3, #1
 80030ce:	d0f9      	beq.n	80030c4 <prvDeleteTCB+0x14>
 80030d0:	2b02      	cmp	r3, #2
 80030d2:	d0fa      	beq.n	80030ca <prvDeleteTCB+0x1a>
 80030d4:	b672      	cpsid	i
 80030d6:	e7fe      	b.n	80030d6 <prvDeleteTCB+0x26>

080030d8 <prvIdleTask>:
 80030d8:	b570      	push	{r4, r5, r6, lr}
 80030da:	4c10      	ldr	r4, [pc, #64]	@ (800311c <prvIdleTask+0x44>)
 80030dc:	6823      	ldr	r3, [r4, #0]
 80030de:	2b00      	cmp	r3, #0
 80030e0:	d106      	bne.n	80030f0 <prvIdleTask+0x18>
 80030e2:	4b0f      	ldr	r3, [pc, #60]	@ (8003120 <prvIdleTask+0x48>)
 80030e4:	681b      	ldr	r3, [r3, #0]
 80030e6:	2b01      	cmp	r3, #1
 80030e8:	d9f7      	bls.n	80030da <prvIdleTask+0x2>
 80030ea:	f000 fd47 	bl	8003b7c <vPortYield>
 80030ee:	e7f4      	b.n	80030da <prvIdleTask+0x2>
 80030f0:	f000 fd50 	bl	8003b94 <vPortEnterCritical>
 80030f4:	4b0b      	ldr	r3, [pc, #44]	@ (8003124 <prvIdleTask+0x4c>)
 80030f6:	68db      	ldr	r3, [r3, #12]
 80030f8:	68dd      	ldr	r5, [r3, #12]
 80030fa:	1d28      	adds	r0, r5, #4
 80030fc:	f7ff fc86 	bl	8002a0c <uxListRemove>
 8003100:	4a09      	ldr	r2, [pc, #36]	@ (8003128 <prvIdleTask+0x50>)
 8003102:	6813      	ldr	r3, [r2, #0]
 8003104:	3b01      	subs	r3, #1
 8003106:	6013      	str	r3, [r2, #0]
 8003108:	6823      	ldr	r3, [r4, #0]
 800310a:	3b01      	subs	r3, #1
 800310c:	6023      	str	r3, [r4, #0]
 800310e:	f000 fd4d 	bl	8003bac <vPortExitCritical>
 8003112:	0028      	movs	r0, r5
 8003114:	f7ff ffcc 	bl	80030b0 <prvDeleteTCB>
 8003118:	e7df      	b.n	80030da <prvIdleTask+0x2>
 800311a:	46c0      	nop			@ (mov r8, r8)
 800311c:	20000b34 	.word	0x20000b34
 8003120:	20000b90 	.word	0x20000b90
 8003124:	20000b38 	.word	0x20000b38
 8003128:	20000b1c 	.word	0x20000b1c

0800312c <prvInitialiseNewTask.constprop.0>:
 800312c:	b5f7      	push	{r0, r1, r2, r4, r5, r6, r7, lr}
 800312e:	9c0a      	ldr	r4, [sp, #40]	@ 0x28
 8003130:	0096      	lsls	r6, r2, #2
 8003132:	0032      	movs	r2, r6
 8003134:	9000      	str	r0, [sp, #0]
 8003136:	000d      	movs	r5, r1
 8003138:	6b20      	ldr	r0, [r4, #48]	@ 0x30
 800313a:	21a5      	movs	r1, #165	@ 0xa5
 800313c:	9301      	str	r3, [sp, #4]
 800313e:	f000 fe4d 	bl	8003ddc <memset>
 8003142:	2207      	movs	r2, #7
 8003144:	6b27      	ldr	r7, [r4, #48]	@ 0x30
 8003146:	3e04      	subs	r6, #4
 8003148:	19bf      	adds	r7, r7, r6
 800314a:	4397      	bics	r7, r2
 800314c:	2d00      	cmp	r5, #0
 800314e:	d030      	beq.n	80031b2 <prvInitialiseNewTask.constprop.0+0x86>
 8003150:	0021      	movs	r1, r4
 8003152:	2300      	movs	r3, #0
 8003154:	3134      	adds	r1, #52	@ 0x34
 8003156:	5cea      	ldrb	r2, [r5, r3]
 8003158:	54ca      	strb	r2, [r1, r3]
 800315a:	2a00      	cmp	r2, #0
 800315c:	d002      	beq.n	8003164 <prvInitialiseNewTask.constprop.0+0x38>
 800315e:	3301      	adds	r3, #1
 8003160:	2b10      	cmp	r3, #16
 8003162:	d1f8      	bne.n	8003156 <prvInitialiseNewTask.constprop.0+0x2a>
 8003164:	0023      	movs	r3, r4
 8003166:	2200      	movs	r2, #0
 8003168:	3343      	adds	r3, #67	@ 0x43
 800316a:	701a      	strb	r2, [r3, #0]
 800316c:	9d08      	ldr	r5, [sp, #32]
 800316e:	2d37      	cmp	r5, #55	@ 0x37
 8003170:	d900      	bls.n	8003174 <prvInitialiseNewTask.constprop.0+0x48>
 8003172:	2537      	movs	r5, #55	@ 0x37
 8003174:	2600      	movs	r6, #0
 8003176:	1d20      	adds	r0, r4, #4
 8003178:	62e5      	str	r5, [r4, #44]	@ 0x2c
 800317a:	64e5      	str	r5, [r4, #76]	@ 0x4c
 800317c:	6526      	str	r6, [r4, #80]	@ 0x50
 800317e:	f7ff fc20 	bl	80029c2 <vListInitialiseItem>
 8003182:	0020      	movs	r0, r4
 8003184:	3018      	adds	r0, #24
 8003186:	f7ff fc1c 	bl	80029c2 <vListInitialiseItem>
 800318a:	2338      	movs	r3, #56	@ 0x38
 800318c:	1b5b      	subs	r3, r3, r5
 800318e:	61a3      	str	r3, [r4, #24]
 8003190:	0023      	movs	r3, r4
 8003192:	3358      	adds	r3, #88	@ 0x58
 8003194:	6124      	str	r4, [r4, #16]
 8003196:	6264      	str	r4, [r4, #36]	@ 0x24
 8003198:	6566      	str	r6, [r4, #84]	@ 0x54
 800319a:	0038      	movs	r0, r7
 800319c:	701e      	strb	r6, [r3, #0]
 800319e:	9a01      	ldr	r2, [sp, #4]
 80031a0:	9900      	ldr	r1, [sp, #0]
 80031a2:	f000 fca7 	bl	8003af4 <pxPortInitialiseStack>
 80031a6:	9b09      	ldr	r3, [sp, #36]	@ 0x24
 80031a8:	6020      	str	r0, [r4, #0]
 80031aa:	42b3      	cmp	r3, r6
 80031ac:	d000      	beq.n	80031b0 <prvInitialiseNewTask.constprop.0+0x84>
 80031ae:	601c      	str	r4, [r3, #0]
 80031b0:	bdf7      	pop	{r0, r1, r2, r4, r5, r6, r7, pc}
 80031b2:	0023      	movs	r3, r4
 80031b4:	3334      	adds	r3, #52	@ 0x34
 80031b6:	701d      	strb	r5, [r3, #0]
 80031b8:	e7d8      	b.n	800316c <prvInitialiseNewTask.constprop.0+0x40>

080031ba <xTaskCreateStatic>:
 80031ba:	b570      	push	{r4, r5, r6, lr}
 80031bc:	b086      	sub	sp, #24
 80031be:	9d0b      	ldr	r5, [sp, #44]	@ 0x2c
 80031c0:	9c0c      	ldr	r4, [sp, #48]	@ 0x30
 80031c2:	2d00      	cmp	r5, #0
 80031c4:	d101      	bne.n	80031ca <xTaskCreateStatic+0x10>
 80031c6:	b672      	cpsid	i
 80031c8:	e7fe      	b.n	80031c8 <xTaskCreateStatic+0xe>
 80031ca:	2c00      	cmp	r4, #0
 80031cc:	d101      	bne.n	80031d2 <xTaskCreateStatic+0x18>
 80031ce:	b672      	cpsid	i
 80031d0:	e7fe      	b.n	80031d0 <xTaskCreateStatic+0x16>
 80031d2:	265c      	movs	r6, #92	@ 0x5c
 80031d4:	9605      	str	r6, [sp, #20]
 80031d6:	9e05      	ldr	r6, [sp, #20]
 80031d8:	2e5c      	cmp	r6, #92	@ 0x5c
 80031da:	d001      	beq.n	80031e0 <xTaskCreateStatic+0x26>
 80031dc:	b672      	cpsid	i
 80031de:	e7fe      	b.n	80031de <xTaskCreateStatic+0x24>
 80031e0:	6325      	str	r5, [r4, #48]	@ 0x30
 80031e2:	0025      	movs	r5, r4
 80031e4:	9e05      	ldr	r6, [sp, #20]
 80031e6:	2602      	movs	r6, #2
 80031e8:	3559      	adds	r5, #89	@ 0x59
 80031ea:	702e      	strb	r6, [r5, #0]
 80031ec:	ad04      	add	r5, sp, #16
 80031ee:	9501      	str	r5, [sp, #4]
 80031f0:	9d0a      	ldr	r5, [sp, #40]	@ 0x28
 80031f2:	9402      	str	r4, [sp, #8]
 80031f4:	9500      	str	r5, [sp, #0]
 80031f6:	f7ff ff99 	bl	800312c <prvInitialiseNewTask.constprop.0>
 80031fa:	0020      	movs	r0, r4
 80031fc:	f7ff fe98 	bl	8002f30 <prvAddNewTaskToReadyList>
 8003200:	9804      	ldr	r0, [sp, #16]
 8003202:	b006      	add	sp, #24
 8003204:	bd70      	pop	{r4, r5, r6, pc}

08003206 <xTaskCreate>:
 8003206:	b5f0      	push	{r4, r5, r6, r7, lr}
 8003208:	0007      	movs	r7, r0
 800320a:	b087      	sub	sp, #28
 800320c:	0090      	lsls	r0, r2, #2
 800320e:	0016      	movs	r6, r2
 8003210:	9104      	str	r1, [sp, #16]
 8003212:	9305      	str	r3, [sp, #20]
 8003214:	f000 fd3c 	bl	8003c90 <pvPortMalloc>
 8003218:	1e05      	subs	r5, r0, #0
 800321a:	d103      	bne.n	8003224 <xTaskCreate+0x1e>
 800321c:	2001      	movs	r0, #1
 800321e:	4240      	negs	r0, r0
 8003220:	b007      	add	sp, #28
 8003222:	bdf0      	pop	{r4, r5, r6, r7, pc}
 8003224:	205c      	movs	r0, #92	@ 0x5c
 8003226:	f000 fd33 	bl	8003c90 <pvPortMalloc>
 800322a:	1e04      	subs	r4, r0, #0
 800322c:	d014      	beq.n	8003258 <xTaskCreate+0x52>
 800322e:	0003      	movs	r3, r0
 8003230:	2200      	movs	r2, #0
 8003232:	3359      	adds	r3, #89	@ 0x59
 8003234:	6305      	str	r5, [r0, #48]	@ 0x30
 8003236:	701a      	strb	r2, [r3, #0]
 8003238:	9b0d      	ldr	r3, [sp, #52]	@ 0x34
 800323a:	0032      	movs	r2, r6
 800323c:	9301      	str	r3, [sp, #4]
 800323e:	9b0c      	ldr	r3, [sp, #48]	@ 0x30
 8003240:	9904      	ldr	r1, [sp, #16]
 8003242:	9002      	str	r0, [sp, #8]
 8003244:	9300      	str	r3, [sp, #0]
 8003246:	0038      	movs	r0, r7
 8003248:	9b05      	ldr	r3, [sp, #20]
 800324a:	f7ff ff6f 	bl	800312c <prvInitialiseNewTask.constprop.0>
 800324e:	0020      	movs	r0, r4
 8003250:	f7ff fe6e 	bl	8002f30 <prvAddNewTaskToReadyList>
 8003254:	2001      	movs	r0, #1
 8003256:	e7e3      	b.n	8003220 <xTaskCreate+0x1a>
 8003258:	0028      	movs	r0, r5
 800325a:	f000 fd9b 	bl	8003d94 <vPortFree>
 800325e:	e7dd      	b.n	800321c <xTaskCreate+0x16>

08003260 <vTaskStartScheduler>:
 8003260:	b510      	push	{r4, lr}
 8003262:	2400      	movs	r4, #0
 8003264:	b088      	sub	sp, #32
 8003266:	aa07      	add	r2, sp, #28
 8003268:	a906      	add	r1, sp, #24
 800326a:	a805      	add	r0, sp, #20
 800326c:	9405      	str	r4, [sp, #20]
 800326e:	9406      	str	r4, [sp, #24]
 8003270:	f7ff fb84 	bl	800297c <vApplicationGetIdleTaskMemory>
 8003274:	9b05      	ldr	r3, [sp, #20]
 8003276:	4910      	ldr	r1, [pc, #64]	@ (80032b8 <vTaskStartScheduler+0x58>)
 8003278:	9302      	str	r3, [sp, #8]
 800327a:	9b06      	ldr	r3, [sp, #24]
 800327c:	480f      	ldr	r0, [pc, #60]	@ (80032bc <vTaskStartScheduler+0x5c>)
 800327e:	9301      	str	r3, [sp, #4]
 8003280:	9a07      	ldr	r2, [sp, #28]
 8003282:	0023      	movs	r3, r4
 8003284:	9400      	str	r4, [sp, #0]
 8003286:	f7ff ff98 	bl	80031ba <xTaskCreateStatic>
 800328a:	42a0      	cmp	r0, r4
 800328c:	d00e      	beq.n	80032ac <vTaskStartScheduler+0x4c>
 800328e:	f000 faa7 	bl	80037e0 <xTimerCreateTimerTask>
 8003292:	2801      	cmp	r0, #1
 8003294:	d10c      	bne.n	80032b0 <vTaskStartScheduler+0x50>
 8003296:	b672      	cpsid	i
 8003298:	2201      	movs	r2, #1
 800329a:	4b09      	ldr	r3, [pc, #36]	@ (80032c0 <vTaskStartScheduler+0x60>)
 800329c:	4252      	negs	r2, r2
 800329e:	601a      	str	r2, [r3, #0]
 80032a0:	4b08      	ldr	r3, [pc, #32]	@ (80032c4 <vTaskStartScheduler+0x64>)
 80032a2:	6018      	str	r0, [r3, #0]
 80032a4:	4b08      	ldr	r3, [pc, #32]	@ (80032c8 <vTaskStartScheduler+0x68>)
 80032a6:	601c      	str	r4, [r3, #0]
 80032a8:	f000 fc36 	bl	8003b18 <xPortStartScheduler>
 80032ac:	b008      	add	sp, #32
 80032ae:	bd10      	pop	{r4, pc}
 80032b0:	3001      	adds	r0, #1
 80032b2:	d1fb      	bne.n	80032ac <vTaskStartScheduler+0x4c>
 80032b4:	b672      	cpsid	i
 80032b6:	e7fe      	b.n	80032b6 <vTaskStartScheduler+0x56>
 80032b8:	08003f78 	.word	0x08003f78
 80032bc:	080030d9 	.word	0x080030d9
 80032c0:	20000afc 	.word	0x20000afc
 80032c4:	20000b10 	.word	0x20000b10
 80032c8:	20000b18 	.word	0x20000b18

080032cc <vTaskSuspendAll>:
 80032cc:	4a02      	ldr	r2, [pc, #8]	@ (80032d8 <vTaskSuspendAll+0xc>)
 80032ce:	6813      	ldr	r3, [r2, #0]
 80032d0:	3301      	adds	r3, #1
 80032d2:	6013      	str	r3, [r2, #0]
 80032d4:	4770      	bx	lr
 80032d6:	46c0      	nop			@ (mov r8, r8)
 80032d8:	20000af8 	.word	0x20000af8

080032dc <xTaskGetTickCount>:
 80032dc:	4b01      	ldr	r3, [pc, #4]	@ (80032e4 <xTaskGetTickCount+0x8>)
 80032de:	6818      	ldr	r0, [r3, #0]
 80032e0:	4770      	bx	lr
 80032e2:	46c0      	nop			@ (mov r8, r8)
 80032e4:	20000b18 	.word	0x20000b18

080032e8 <xTaskIncrementTick>:
 80032e8:	b5f0      	push	{r4, r5, r6, r7, lr}
 80032ea:	4b37      	ldr	r3, [pc, #220]	@ (80033c8 <xTaskIncrementTick+0xe0>)
 80032ec:	b085      	sub	sp, #20
 80032ee:	681b      	ldr	r3, [r3, #0]
 80032f0:	2b00      	cmp	r3, #0
 80032f2:	d160      	bne.n	80033b6 <xTaskIncrementTick+0xce>
 80032f4:	4b35      	ldr	r3, [pc, #212]	@ (80033cc <xTaskIncrementTick+0xe4>)
 80032f6:	681d      	ldr	r5, [r3, #0]
 80032f8:	3501      	adds	r5, #1
 80032fa:	601d      	str	r5, [r3, #0]
 80032fc:	2d00      	cmp	r5, #0
 80032fe:	d111      	bne.n	8003324 <xTaskIncrementTick+0x3c>
 8003300:	4b33      	ldr	r3, [pc, #204]	@ (80033d0 <xTaskIncrementTick+0xe8>)
 8003302:	681a      	ldr	r2, [r3, #0]
 8003304:	6812      	ldr	r2, [r2, #0]
 8003306:	2a00      	cmp	r2, #0
 8003308:	d001      	beq.n	800330e <xTaskIncrementTick+0x26>
 800330a:	b672      	cpsid	i
 800330c:	e7fe      	b.n	800330c <xTaskIncrementTick+0x24>
 800330e:	4a31      	ldr	r2, [pc, #196]	@ (80033d4 <xTaskIncrementTick+0xec>)
 8003310:	6819      	ldr	r1, [r3, #0]
 8003312:	6810      	ldr	r0, [r2, #0]
 8003314:	6018      	str	r0, [r3, #0]
 8003316:	6011      	str	r1, [r2, #0]
 8003318:	4a2f      	ldr	r2, [pc, #188]	@ (80033d8 <xTaskIncrementTick+0xf0>)
 800331a:	6813      	ldr	r3, [r2, #0]
 800331c:	3301      	adds	r3, #1
 800331e:	6013      	str	r3, [r2, #0]
 8003320:	f7ff feb2 	bl	8003088 <prvResetNextTaskUnblockTime>
 8003324:	4a2d      	ldr	r2, [pc, #180]	@ (80033dc <xTaskIncrementTick+0xf4>)
 8003326:	4f2e      	ldr	r7, [pc, #184]	@ (80033e0 <xTaskIncrementTick+0xf8>)
 8003328:	9201      	str	r2, [sp, #4]
 800332a:	683b      	ldr	r3, [r7, #0]
 800332c:	4a2d      	ldr	r2, [pc, #180]	@ (80033e4 <xTaskIncrementTick+0xfc>)
 800332e:	2400      	movs	r4, #0
 8003330:	9202      	str	r2, [sp, #8]
 8003332:	42ab      	cmp	r3, r5
 8003334:	d936      	bls.n	80033a4 <xTaskIncrementTick+0xbc>
 8003336:	9b02      	ldr	r3, [sp, #8]
 8003338:	681b      	ldr	r3, [r3, #0]
 800333a:	6ada      	ldr	r2, [r3, #44]	@ 0x2c
 800333c:	2314      	movs	r3, #20
 800333e:	4353      	muls	r3, r2
 8003340:	9a01      	ldr	r2, [sp, #4]
 8003342:	58d3      	ldr	r3, [r2, r3]
 8003344:	2b01      	cmp	r3, #1
 8003346:	d83c      	bhi.n	80033c2 <xTaskIncrementTick+0xda>
 8003348:	4b27      	ldr	r3, [pc, #156]	@ (80033e8 <xTaskIncrementTick+0x100>)
 800334a:	681b      	ldr	r3, [r3, #0]
 800334c:	2b00      	cmp	r3, #0
 800334e:	d000      	beq.n	8003352 <xTaskIncrementTick+0x6a>
 8003350:	2401      	movs	r4, #1
 8003352:	0020      	movs	r0, r4
 8003354:	b005      	add	sp, #20
 8003356:	bdf0      	pop	{r4, r5, r6, r7, pc}
 8003358:	681b      	ldr	r3, [r3, #0]
 800335a:	68db      	ldr	r3, [r3, #12]
 800335c:	68de      	ldr	r6, [r3, #12]
 800335e:	6873      	ldr	r3, [r6, #4]
 8003360:	429d      	cmp	r5, r3
 8003362:	d326      	bcc.n	80033b2 <xTaskIncrementTick+0xca>
 8003364:	1d33      	adds	r3, r6, #4
 8003366:	0018      	movs	r0, r3
 8003368:	9303      	str	r3, [sp, #12]
 800336a:	f7ff fb4f 	bl	8002a0c <uxListRemove>
 800336e:	6ab3      	ldr	r3, [r6, #40]	@ 0x28
 8003370:	2b00      	cmp	r3, #0
 8003372:	d003      	beq.n	800337c <xTaskIncrementTick+0x94>
 8003374:	0030      	movs	r0, r6
 8003376:	3018      	adds	r0, #24
 8003378:	f7ff fb48 	bl	8002a0c <uxListRemove>
 800337c:	4b1b      	ldr	r3, [pc, #108]	@ (80033ec <xTaskIncrementTick+0x104>)
 800337e:	6af0      	ldr	r0, [r6, #44]	@ 0x2c
 8003380:	681a      	ldr	r2, [r3, #0]
 8003382:	4290      	cmp	r0, r2
 8003384:	d900      	bls.n	8003388 <xTaskIncrementTick+0xa0>
 8003386:	6018      	str	r0, [r3, #0]
 8003388:	2314      	movs	r3, #20
 800338a:	4358      	muls	r0, r3
 800338c:	9b01      	ldr	r3, [sp, #4]
 800338e:	1d31      	adds	r1, r6, #4
 8003390:	1818      	adds	r0, r3, r0
 8003392:	f7ff fb19 	bl	80029c8 <vListInsertEnd>
 8003396:	9b02      	ldr	r3, [sp, #8]
 8003398:	6af2      	ldr	r2, [r6, #44]	@ 0x2c
 800339a:	681b      	ldr	r3, [r3, #0]
 800339c:	6adb      	ldr	r3, [r3, #44]	@ 0x2c
 800339e:	429a      	cmp	r2, r3
 80033a0:	d300      	bcc.n	80033a4 <xTaskIncrementTick+0xbc>
 80033a2:	2401      	movs	r4, #1
 80033a4:	4b0a      	ldr	r3, [pc, #40]	@ (80033d0 <xTaskIncrementTick+0xe8>)
 80033a6:	681a      	ldr	r2, [r3, #0]
 80033a8:	6812      	ldr	r2, [r2, #0]
 80033aa:	2a00      	cmp	r2, #0
 80033ac:	d1d4      	bne.n	8003358 <xTaskIncrementTick+0x70>
 80033ae:	2301      	movs	r3, #1
 80033b0:	425b      	negs	r3, r3
 80033b2:	603b      	str	r3, [r7, #0]
 80033b4:	e7bf      	b.n	8003336 <xTaskIncrementTick+0x4e>
 80033b6:	4a0e      	ldr	r2, [pc, #56]	@ (80033f0 <xTaskIncrementTick+0x108>)
 80033b8:	2400      	movs	r4, #0
 80033ba:	6813      	ldr	r3, [r2, #0]
 80033bc:	3301      	adds	r3, #1
 80033be:	6013      	str	r3, [r2, #0]
 80033c0:	e7c2      	b.n	8003348 <xTaskIncrementTick+0x60>
 80033c2:	2401      	movs	r4, #1
 80033c4:	e7c0      	b.n	8003348 <xTaskIncrementTick+0x60>
 80033c6:	46c0      	nop			@ (mov r8, r8)
 80033c8:	20000af8 	.word	0x20000af8
 80033cc:	20000b18 	.word	0x20000b18
 80033d0:	20000b64 	.word	0x20000b64
 80033d4:	20000b60 	.word	0x20000b60
 80033d8:	20000b04 	.word	0x20000b04
 80033dc:	20000b90 	.word	0x20000b90
 80033e0:	20000afc 	.word	0x20000afc
 80033e4:	20000ff0 	.word	0x20000ff0
 80033e8:	20000b08 	.word	0x20000b08
 80033ec:	20000b14 	.word	0x20000b14
 80033f0:	20000b0c 	.word	0x20000b0c

080033f4 <xTaskResumeAll>:
 80033f4:	b5f8      	push	{r3, r4, r5, r6, r7, lr}
 80033f6:	4c2b      	ldr	r4, [pc, #172]	@ (80034a4 <xTaskResumeAll+0xb0>)
 80033f8:	6823      	ldr	r3, [r4, #0]
 80033fa:	2b00      	cmp	r3, #0
 80033fc:	d101      	bne.n	8003402 <xTaskResumeAll+0xe>
 80033fe:	b672      	cpsid	i
 8003400:	e7fe      	b.n	8003400 <xTaskResumeAll+0xc>
 8003402:	f000 fbc7 	bl	8003b94 <vPortEnterCritical>
 8003406:	6823      	ldr	r3, [r4, #0]
 8003408:	3b01      	subs	r3, #1
 800340a:	6023      	str	r3, [r4, #0]
 800340c:	6824      	ldr	r4, [r4, #0]
 800340e:	2c00      	cmp	r4, #0
 8003410:	d004      	beq.n	800341c <xTaskResumeAll+0x28>
 8003412:	2400      	movs	r4, #0
 8003414:	f000 fbca 	bl	8003bac <vPortExitCritical>
 8003418:	0020      	movs	r0, r4
 800341a:	bdf8      	pop	{r3, r4, r5, r6, r7, pc}
 800341c:	4b22      	ldr	r3, [pc, #136]	@ (80034a8 <xTaskResumeAll+0xb4>)
 800341e:	681b      	ldr	r3, [r3, #0]
 8003420:	2b00      	cmp	r3, #0
 8003422:	d0f6      	beq.n	8003412 <xTaskResumeAll+0x1e>
 8003424:	2614      	movs	r6, #20
 8003426:	2701      	movs	r7, #1
 8003428:	e01d      	b.n	8003466 <xTaskResumeAll+0x72>
 800342a:	68db      	ldr	r3, [r3, #12]
 800342c:	68dc      	ldr	r4, [r3, #12]
 800342e:	0020      	movs	r0, r4
 8003430:	1d25      	adds	r5, r4, #4
 8003432:	3018      	adds	r0, #24
 8003434:	f7ff faea 	bl	8002a0c <uxListRemove>
 8003438:	0028      	movs	r0, r5
 800343a:	f7ff fae7 	bl	8002a0c <uxListRemove>
 800343e:	4b1b      	ldr	r3, [pc, #108]	@ (80034ac <xTaskResumeAll+0xb8>)
 8003440:	6ae0      	ldr	r0, [r4, #44]	@ 0x2c
 8003442:	681a      	ldr	r2, [r3, #0]
 8003444:	4290      	cmp	r0, r2
 8003446:	d900      	bls.n	800344a <xTaskResumeAll+0x56>
 8003448:	6018      	str	r0, [r3, #0]
 800344a:	4370      	muls	r0, r6
 800344c:	4b18      	ldr	r3, [pc, #96]	@ (80034b0 <xTaskResumeAll+0xbc>)
 800344e:	0029      	movs	r1, r5
 8003450:	18c0      	adds	r0, r0, r3
 8003452:	f7ff fab9 	bl	80029c8 <vListInsertEnd>
 8003456:	4b17      	ldr	r3, [pc, #92]	@ (80034b4 <xTaskResumeAll+0xc0>)
 8003458:	6ae2      	ldr	r2, [r4, #44]	@ 0x2c
 800345a:	681b      	ldr	r3, [r3, #0]
 800345c:	6adb      	ldr	r3, [r3, #44]	@ 0x2c
 800345e:	429a      	cmp	r2, r3
 8003460:	d301      	bcc.n	8003466 <xTaskResumeAll+0x72>
 8003462:	4b15      	ldr	r3, [pc, #84]	@ (80034b8 <xTaskResumeAll+0xc4>)
 8003464:	601f      	str	r7, [r3, #0]
 8003466:	4b15      	ldr	r3, [pc, #84]	@ (80034bc <xTaskResumeAll+0xc8>)
 8003468:	681a      	ldr	r2, [r3, #0]
 800346a:	2a00      	cmp	r2, #0
 800346c:	d1dd      	bne.n	800342a <xTaskResumeAll+0x36>
 800346e:	2c00      	cmp	r4, #0
 8003470:	d001      	beq.n	8003476 <xTaskResumeAll+0x82>
 8003472:	f7ff fe09 	bl	8003088 <prvResetNextTaskUnblockTime>
 8003476:	4d12      	ldr	r5, [pc, #72]	@ (80034c0 <xTaskResumeAll+0xcc>)
 8003478:	682c      	ldr	r4, [r5, #0]
 800347a:	2c00      	cmp	r4, #0
 800347c:	d00a      	beq.n	8003494 <xTaskResumeAll+0xa0>
 800347e:	2601      	movs	r6, #1
 8003480:	f7ff ff32 	bl	80032e8 <xTaskIncrementTick>
 8003484:	2800      	cmp	r0, #0
 8003486:	d001      	beq.n	800348c <xTaskResumeAll+0x98>
 8003488:	4b0b      	ldr	r3, [pc, #44]	@ (80034b8 <xTaskResumeAll+0xc4>)
 800348a:	601e      	str	r6, [r3, #0]
 800348c:	3c01      	subs	r4, #1
 800348e:	2c00      	cmp	r4, #0
 8003490:	d1f6      	bne.n	8003480 <xTaskResumeAll+0x8c>
 8003492:	602c      	str	r4, [r5, #0]
 8003494:	4b08      	ldr	r3, [pc, #32]	@ (80034b8 <xTaskResumeAll+0xc4>)
 8003496:	681b      	ldr	r3, [r3, #0]
 8003498:	2b00      	cmp	r3, #0
 800349a:	d0ba      	beq.n	8003412 <xTaskResumeAll+0x1e>
 800349c:	f000 fb6e 	bl	8003b7c <vPortYield>
 80034a0:	2401      	movs	r4, #1
 80034a2:	e7b7      	b.n	8003414 <xTaskResumeAll+0x20>
 80034a4:	20000af8 	.word	0x20000af8
 80034a8:	20000b1c 	.word	0x20000b1c
 80034ac:	20000b14 	.word	0x20000b14
 80034b0:	20000b90 	.word	0x20000b90
 80034b4:	20000ff0 	.word	0x20000ff0
 80034b8:	20000b08 	.word	0x20000b08
 80034bc:	20000b4c 	.word	0x20000b4c
 80034c0:	20000b0c 	.word	0x20000b0c

080034c4 <vTaskDelay>:
 80034c4:	b570      	push	{r4, r5, r6, lr}
 80034c6:	1e04      	subs	r4, r0, #0
 80034c8:	d102      	bne.n	80034d0 <vTaskDelay+0xc>
 80034ca:	f000 fb57 	bl	8003b7c <vPortYield>
 80034ce:	bd70      	pop	{r4, r5, r6, pc}
 80034d0:	4b08      	ldr	r3, [pc, #32]	@ (80034f4 <vTaskDelay+0x30>)
 80034d2:	681d      	ldr	r5, [r3, #0]
 80034d4:	2d00      	cmp	r5, #0
 80034d6:	d001      	beq.n	80034dc <vTaskDelay+0x18>
 80034d8:	b672      	cpsid	i
 80034da:	e7fe      	b.n	80034da <vTaskDelay+0x16>
 80034dc:	f7ff fef6 	bl	80032cc <vTaskSuspendAll>
 80034e0:	0029      	movs	r1, r5
 80034e2:	0020      	movs	r0, r4
 80034e4:	f7ff fd98 	bl	8003018 <prvAddCurrentTaskToDelayedList>
 80034e8:	f7ff ff84 	bl	80033f4 <xTaskResumeAll>
 80034ec:	2800      	cmp	r0, #0
 80034ee:	d0ec      	beq.n	80034ca <vTaskDelay+0x6>
 80034f0:	e7ed      	b.n	80034ce <vTaskDelay+0xa>
 80034f2:	46c0      	nop			@ (mov r8, r8)
 80034f4:	20000af8 	.word	0x20000af8

080034f8 <vTaskSwitchContext>:
 80034f8:	4b15      	ldr	r3, [pc, #84]	@ (8003550 <vTaskSwitchContext+0x58>)
 80034fa:	b530      	push	{r4, r5, lr}
 80034fc:	681a      	ldr	r2, [r3, #0]
 80034fe:	4b15      	ldr	r3, [pc, #84]	@ (8003554 <vTaskSwitchContext+0x5c>)
 8003500:	2a00      	cmp	r2, #0
 8003502:	d002      	beq.n	800350a <vTaskSwitchContext+0x12>
 8003504:	2201      	movs	r2, #1
 8003506:	601a      	str	r2, [r3, #0]
 8003508:	bd30      	pop	{r4, r5, pc}
 800350a:	2514      	movs	r5, #20
 800350c:	4812      	ldr	r0, [pc, #72]	@ (8003558 <vTaskSwitchContext+0x60>)
 800350e:	601a      	str	r2, [r3, #0]
 8003510:	6802      	ldr	r2, [r0, #0]
 8003512:	4912      	ldr	r1, [pc, #72]	@ (800355c <vTaskSwitchContext+0x64>)
 8003514:	002b      	movs	r3, r5
 8003516:	4353      	muls	r3, r2
 8003518:	585c      	ldr	r4, [r3, r1]
 800351a:	2c00      	cmp	r4, #0
 800351c:	d012      	beq.n	8003544 <vTaskSwitchContext+0x4c>
 800351e:	18cc      	adds	r4, r1, r3
 8003520:	6865      	ldr	r5, [r4, #4]
 8003522:	3308      	adds	r3, #8
 8003524:	686d      	ldr	r5, [r5, #4]
 8003526:	185b      	adds	r3, r3, r1
 8003528:	6065      	str	r5, [r4, #4]
 800352a:	429d      	cmp	r5, r3
 800352c:	d101      	bne.n	8003532 <vTaskSwitchContext+0x3a>
 800352e:	686b      	ldr	r3, [r5, #4]
 8003530:	6063      	str	r3, [r4, #4]
 8003532:	2314      	movs	r3, #20
 8003534:	4353      	muls	r3, r2
 8003536:	18c9      	adds	r1, r1, r3
 8003538:	684b      	ldr	r3, [r1, #4]
 800353a:	68d9      	ldr	r1, [r3, #12]
 800353c:	4b08      	ldr	r3, [pc, #32]	@ (8003560 <vTaskSwitchContext+0x68>)
 800353e:	6019      	str	r1, [r3, #0]
 8003540:	6002      	str	r2, [r0, #0]
 8003542:	e7e1      	b.n	8003508 <vTaskSwitchContext+0x10>
 8003544:	2a00      	cmp	r2, #0
 8003546:	d101      	bne.n	800354c <vTaskSwitchContext+0x54>
 8003548:	b672      	cpsid	i
 800354a:	e7fe      	b.n	800354a <vTaskSwitchContext+0x52>
 800354c:	3a01      	subs	r2, #1
 800354e:	e7e1      	b.n	8003514 <vTaskSwitchContext+0x1c>
 8003550:	20000af8 	.word	0x20000af8
 8003554:	20000b08 	.word	0x20000b08
 8003558:	20000b14 	.word	0x20000b14
 800355c:	20000b90 	.word	0x20000b90
 8003560:	20000ff0 	.word	0x20000ff0

08003564 <vTaskPlaceOnEventList>:
 8003564:	b510      	push	{r4, lr}
 8003566:	000c      	movs	r4, r1
 8003568:	2800      	cmp	r0, #0
 800356a:	d101      	bne.n	8003570 <vTaskPlaceOnEventList+0xc>
 800356c:	b672      	cpsid	i
 800356e:	e7fe      	b.n	800356e <vTaskPlaceOnEventList+0xa>
 8003570:	4b04      	ldr	r3, [pc, #16]	@ (8003584 <vTaskPlaceOnEventList+0x20>)
 8003572:	6819      	ldr	r1, [r3, #0]
 8003574:	3118      	adds	r1, #24
 8003576:	f7ff fa32 	bl	80029de <vListInsert>
 800357a:	2101      	movs	r1, #1
 800357c:	0020      	movs	r0, r4
 800357e:	f7ff fd4b 	bl	8003018 <prvAddCurrentTaskToDelayedList>
 8003582:	bd10      	pop	{r4, pc}
 8003584:	20000ff0 	.word	0x20000ff0

08003588 <vTaskPlaceOnEventListRestricted>:
 8003588:	b570      	push	{r4, r5, r6, lr}
 800358a:	000c      	movs	r4, r1
 800358c:	0015      	movs	r5, r2
 800358e:	2800      	cmp	r0, #0
 8003590:	d101      	bne.n	8003596 <vTaskPlaceOnEventListRestricted+0xe>
 8003592:	b672      	cpsid	i
 8003594:	e7fe      	b.n	8003594 <vTaskPlaceOnEventListRestricted+0xc>
 8003596:	4b07      	ldr	r3, [pc, #28]	@ (80035b4 <vTaskPlaceOnEventListRestricted+0x2c>)
 8003598:	6819      	ldr	r1, [r3, #0]
 800359a:	3118      	adds	r1, #24
 800359c:	f7ff fa14 	bl	80029c8 <vListInsertEnd>
 80035a0:	2d00      	cmp	r5, #0
 80035a2:	d001      	beq.n	80035a8 <vTaskPlaceOnEventListRestricted+0x20>
 80035a4:	2401      	movs	r4, #1
 80035a6:	4264      	negs	r4, r4
 80035a8:	0029      	movs	r1, r5
 80035aa:	0020      	movs	r0, r4
 80035ac:	f7ff fd34 	bl	8003018 <prvAddCurrentTaskToDelayedList>
 80035b0:	bd70      	pop	{r4, r5, r6, pc}
 80035b2:	46c0      	nop			@ (mov r8, r8)
 80035b4:	20000ff0 	.word	0x20000ff0

080035b8 <xTaskRemoveFromEventList>:
 80035b8:	68c3      	ldr	r3, [r0, #12]
 80035ba:	b570      	push	{r4, r5, r6, lr}
 80035bc:	68dc      	ldr	r4, [r3, #12]
 80035be:	2c00      	cmp	r4, #0
 80035c0:	d101      	bne.n	80035c6 <xTaskRemoveFromEventList+0xe>
 80035c2:	b672      	cpsid	i
 80035c4:	e7fe      	b.n	80035c4 <xTaskRemoveFromEventList+0xc>
 80035c6:	0025      	movs	r5, r4
 80035c8:	3518      	adds	r5, #24
 80035ca:	0028      	movs	r0, r5
 80035cc:	f7ff fa1e 	bl	8002a0c <uxListRemove>
 80035d0:	4b10      	ldr	r3, [pc, #64]	@ (8003614 <xTaskRemoveFromEventList+0x5c>)
 80035d2:	4811      	ldr	r0, [pc, #68]	@ (8003618 <xTaskRemoveFromEventList+0x60>)
 80035d4:	681b      	ldr	r3, [r3, #0]
 80035d6:	2b00      	cmp	r3, #0
 80035d8:	d10d      	bne.n	80035f6 <xTaskRemoveFromEventList+0x3e>
 80035da:	1d25      	adds	r5, r4, #4
 80035dc:	0028      	movs	r0, r5
 80035de:	f7ff fa15 	bl	8002a0c <uxListRemove>
 80035e2:	4a0e      	ldr	r2, [pc, #56]	@ (800361c <xTaskRemoveFromEventList+0x64>)
 80035e4:	6ae3      	ldr	r3, [r4, #44]	@ 0x2c
 80035e6:	6811      	ldr	r1, [r2, #0]
 80035e8:	428b      	cmp	r3, r1
 80035ea:	d900      	bls.n	80035ee <xTaskRemoveFromEventList+0x36>
 80035ec:	6013      	str	r3, [r2, #0]
 80035ee:	2014      	movs	r0, #20
 80035f0:	4358      	muls	r0, r3
 80035f2:	4b0b      	ldr	r3, [pc, #44]	@ (8003620 <xTaskRemoveFromEventList+0x68>)
 80035f4:	18c0      	adds	r0, r0, r3
 80035f6:	0029      	movs	r1, r5
 80035f8:	f7ff f9e6 	bl	80029c8 <vListInsertEnd>
 80035fc:	4b09      	ldr	r3, [pc, #36]	@ (8003624 <xTaskRemoveFromEventList+0x6c>)
 80035fe:	6ae2      	ldr	r2, [r4, #44]	@ 0x2c
 8003600:	681b      	ldr	r3, [r3, #0]
 8003602:	2000      	movs	r0, #0
 8003604:	6adb      	ldr	r3, [r3, #44]	@ 0x2c
 8003606:	429a      	cmp	r2, r3
 8003608:	d902      	bls.n	8003610 <xTaskRemoveFromEventList+0x58>
 800360a:	4b07      	ldr	r3, [pc, #28]	@ (8003628 <xTaskRemoveFromEventList+0x70>)
 800360c:	3001      	adds	r0, #1
 800360e:	6018      	str	r0, [r3, #0]
 8003610:	bd70      	pop	{r4, r5, r6, pc}
 8003612:	46c0      	nop			@ (mov r8, r8)
 8003614:	20000af8 	.word	0x20000af8
 8003618:	20000b4c 	.word	0x20000b4c
 800361c:	20000b14 	.word	0x20000b14
 8003620:	20000b90 	.word	0x20000b90
 8003624:	20000ff0 	.word	0x20000ff0
 8003628:	20000b08 	.word	0x20000b08

0800362c <vTaskInternalSetTimeOutState>:
 800362c:	4b03      	ldr	r3, [pc, #12]	@ (800363c <vTaskInternalSetTimeOutState+0x10>)
 800362e:	681b      	ldr	r3, [r3, #0]
 8003630:	6003      	str	r3, [r0, #0]
 8003632:	4b03      	ldr	r3, [pc, #12]	@ (8003640 <vTaskInternalSetTimeOutState+0x14>)
 8003634:	681b      	ldr	r3, [r3, #0]
 8003636:	6043      	str	r3, [r0, #4]
 8003638:	4770      	bx	lr
 800363a:	46c0      	nop			@ (mov r8, r8)
 800363c:	20000b04 	.word	0x20000b04
 8003640:	20000b18 	.word	0x20000b18

08003644 <xTaskCheckForTimeOut>:
 8003644:	b570      	push	{r4, r5, r6, lr}
 8003646:	0005      	movs	r5, r0
 8003648:	000c      	movs	r4, r1
 800364a:	2800      	cmp	r0, #0
 800364c:	d101      	bne.n	8003652 <xTaskCheckForTimeOut+0xe>
 800364e:	b672      	cpsid	i
 8003650:	e7fe      	b.n	8003650 <xTaskCheckForTimeOut+0xc>
 8003652:	2900      	cmp	r1, #0
 8003654:	d101      	bne.n	800365a <xTaskCheckForTimeOut+0x16>
 8003656:	b672      	cpsid	i
 8003658:	e7fe      	b.n	8003658 <xTaskCheckForTimeOut+0x14>
 800365a:	f000 fa9b 	bl	8003b94 <vPortEnterCritical>
 800365e:	4b0f      	ldr	r3, [pc, #60]	@ (800369c <xTaskCheckForTimeOut+0x58>)
 8003660:	6819      	ldr	r1, [r3, #0]
 8003662:	6823      	ldr	r3, [r4, #0]
 8003664:	1c5a      	adds	r2, r3, #1
 8003666:	d010      	beq.n	800368a <xTaskCheckForTimeOut+0x46>
 8003668:	480d      	ldr	r0, [pc, #52]	@ (80036a0 <xTaskCheckForTimeOut+0x5c>)
 800366a:	682e      	ldr	r6, [r5, #0]
 800366c:	6800      	ldr	r0, [r0, #0]
 800366e:	686a      	ldr	r2, [r5, #4]
 8003670:	4286      	cmp	r6, r0
 8003672:	d001      	beq.n	8003678 <xTaskCheckForTimeOut+0x34>
 8003674:	428a      	cmp	r2, r1
 8003676:	d90f      	bls.n	8003698 <xTaskCheckForTimeOut+0x54>
 8003678:	1a88      	subs	r0, r1, r2
 800367a:	4283      	cmp	r3, r0
 800367c:	d90a      	bls.n	8003694 <xTaskCheckForTimeOut+0x50>
 800367e:	1a5b      	subs	r3, r3, r1
 8003680:	189b      	adds	r3, r3, r2
 8003682:	0028      	movs	r0, r5
 8003684:	6023      	str	r3, [r4, #0]
 8003686:	f7ff ffd1 	bl	800362c <vTaskInternalSetTimeOutState>
 800368a:	2400      	movs	r4, #0
 800368c:	f000 fa8e 	bl	8003bac <vPortExitCritical>
 8003690:	0020      	movs	r0, r4
 8003692:	bd70      	pop	{r4, r5, r6, pc}
 8003694:	2300      	movs	r3, #0
 8003696:	6023      	str	r3, [r4, #0]
 8003698:	2401      	movs	r4, #1
 800369a:	e7f7      	b.n	800368c <xTaskCheckForTimeOut+0x48>
 800369c:	20000b18 	.word	0x20000b18
 80036a0:	20000b04 	.word	0x20000b04

080036a4 <vTaskMissedYield>:
 80036a4:	2201      	movs	r2, #1
 80036a6:	4b01      	ldr	r3, [pc, #4]	@ (80036ac <vTaskMissedYield+0x8>)
 80036a8:	601a      	str	r2, [r3, #0]
 80036aa:	4770      	bx	lr
 80036ac:	20000b08 	.word	0x20000b08

080036b0 <xTaskGetSchedulerState>:
 80036b0:	4b05      	ldr	r3, [pc, #20]	@ (80036c8 <xTaskGetSchedulerState+0x18>)
 80036b2:	2001      	movs	r0, #1
 80036b4:	681b      	ldr	r3, [r3, #0]
 80036b6:	2b00      	cmp	r3, #0
 80036b8:	d004      	beq.n	80036c4 <xTaskGetSchedulerState+0x14>
 80036ba:	4b04      	ldr	r3, [pc, #16]	@ (80036cc <xTaskGetSchedulerState+0x1c>)
 80036bc:	6818      	ldr	r0, [r3, #0]
 80036be:	4243      	negs	r3, r0
 80036c0:	4158      	adcs	r0, r3
 80036c2:	0040      	lsls	r0, r0, #1
 80036c4:	4770      	bx	lr
 80036c6:	46c0      	nop			@ (mov r8, r8)
 80036c8:	20000b10 	.word	0x20000b10
 80036cc:	20000af8 	.word	0x20000af8

080036d0 <xTaskPriorityDisinherit>:
 80036d0:	b570      	push	{r4, r5, r6, lr}
 80036d2:	2800      	cmp	r0, #0
 80036d4:	d101      	bne.n	80036da <xTaskPriorityDisinherit+0xa>
 80036d6:	2000      	movs	r0, #0
 80036d8:	bd70      	pop	{r4, r5, r6, pc}
 80036da:	4b15      	ldr	r3, [pc, #84]	@ (8003730 <xTaskPriorityDisinherit+0x60>)
 80036dc:	681c      	ldr	r4, [r3, #0]
 80036de:	4284      	cmp	r4, r0
 80036e0:	d001      	beq.n	80036e6 <xTaskPriorityDisinherit+0x16>
 80036e2:	b672      	cpsid	i
 80036e4:	e7fe      	b.n	80036e4 <xTaskPriorityDisinherit+0x14>
 80036e6:	6d23      	ldr	r3, [r4, #80]	@ 0x50
 80036e8:	2b00      	cmp	r3, #0
 80036ea:	d101      	bne.n	80036f0 <xTaskPriorityDisinherit+0x20>
 80036ec:	b672      	cpsid	i
 80036ee:	e7fe      	b.n	80036ee <xTaskPriorityDisinherit+0x1e>
 80036f0:	6ae1      	ldr	r1, [r4, #44]	@ 0x2c
 80036f2:	6ce2      	ldr	r2, [r4, #76]	@ 0x4c
 80036f4:	3b01      	subs	r3, #1
 80036f6:	6523      	str	r3, [r4, #80]	@ 0x50
 80036f8:	4291      	cmp	r1, r2
 80036fa:	d0ec      	beq.n	80036d6 <xTaskPriorityDisinherit+0x6>
 80036fc:	2b00      	cmp	r3, #0
 80036fe:	d1ea      	bne.n	80036d6 <xTaskPriorityDisinherit+0x6>
 8003700:	1d25      	adds	r5, r4, #4
 8003702:	0028      	movs	r0, r5
 8003704:	f7ff f982 	bl	8002a0c <uxListRemove>
 8003708:	2238      	movs	r2, #56	@ 0x38
 800370a:	6ce3      	ldr	r3, [r4, #76]	@ 0x4c
 800370c:	1ad2      	subs	r2, r2, r3
 800370e:	61a2      	str	r2, [r4, #24]
 8003710:	4a08      	ldr	r2, [pc, #32]	@ (8003734 <xTaskPriorityDisinherit+0x64>)
 8003712:	62e3      	str	r3, [r4, #44]	@ 0x2c
 8003714:	6811      	ldr	r1, [r2, #0]
 8003716:	428b      	cmp	r3, r1
 8003718:	d900      	bls.n	800371c <xTaskPriorityDisinherit+0x4c>
 800371a:	6013      	str	r3, [r2, #0]
 800371c:	2014      	movs	r0, #20
 800371e:	4358      	muls	r0, r3
 8003720:	4b05      	ldr	r3, [pc, #20]	@ (8003738 <xTaskPriorityDisinherit+0x68>)
 8003722:	0029      	movs	r1, r5
 8003724:	18c0      	adds	r0, r0, r3
 8003726:	f7ff f94f 	bl	80029c8 <vListInsertEnd>
 800372a:	2001      	movs	r0, #1
 800372c:	e7d4      	b.n	80036d8 <xTaskPriorityDisinherit+0x8>
 800372e:	46c0      	nop			@ (mov r8, r8)
 8003730:	20000ff0 	.word	0x20000ff0
 8003734:	20000b14 	.word	0x20000b14
 8003738:	20000b90 	.word	0x20000b90

0800373c <prvInsertTimerInActiveList>:
 800373c:	b510      	push	{r4, lr}
 800373e:	0004      	movs	r4, r0
 8003740:	6041      	str	r1, [r0, #4]
 8003742:	6100      	str	r0, [r0, #16]
 8003744:	4291      	cmp	r1, r2
 8003746:	d80b      	bhi.n	8003760 <prvInsertTimerInActiveList+0x24>
 8003748:	1ad2      	subs	r2, r2, r3
 800374a:	6983      	ldr	r3, [r0, #24]
 800374c:	2001      	movs	r0, #1
 800374e:	429a      	cmp	r2, r3
 8003750:	d205      	bcs.n	800375e <prvInsertTimerInActiveList+0x22>
 8003752:	4b07      	ldr	r3, [pc, #28]	@ (8003770 <prvInsertTimerInActiveList+0x34>)
 8003754:	1d21      	adds	r1, r4, #4
 8003756:	6818      	ldr	r0, [r3, #0]
 8003758:	f7ff f941 	bl	80029de <vListInsert>
 800375c:	2000      	movs	r0, #0
 800375e:	bd10      	pop	{r4, pc}
 8003760:	429a      	cmp	r2, r3
 8003762:	d202      	bcs.n	800376a <prvInsertTimerInActiveList+0x2e>
 8003764:	2001      	movs	r0, #1
 8003766:	4299      	cmp	r1, r3
 8003768:	d2f9      	bcs.n	800375e <prvInsertTimerInActiveList+0x22>
 800376a:	4b02      	ldr	r3, [pc, #8]	@ (8003774 <prvInsertTimerInActiveList+0x38>)
 800376c:	1d21      	adds	r1, r4, #4
 800376e:	e7f2      	b.n	8003756 <prvInsertTimerInActiveList+0x1a>
 8003770:	200010f0 	.word	0x200010f0
 8003774:	200010f4 	.word	0x200010f4

08003778 <prvCheckForValidListAndQueue>:
 8003778:	b5f7      	push	{r0, r1, r2, r4, r5, r6, r7, lr}
 800377a:	f000 fa0b 	bl	8003b94 <vPortEnterCritical>
 800377e:	4c10      	ldr	r4, [pc, #64]	@ (80037c0 <prvCheckForValidListAndQueue+0x48>)
 8003780:	6825      	ldr	r5, [r4, #0]
 8003782:	2d00      	cmp	r5, #0
 8003784:	d118      	bne.n	80037b8 <prvCheckForValidListAndQueue+0x40>
 8003786:	4f0f      	ldr	r7, [pc, #60]	@ (80037c4 <prvCheckForValidListAndQueue+0x4c>)
 8003788:	0038      	movs	r0, r7
 800378a:	f7ff f90f 	bl	80029ac <vListInitialise>
 800378e:	4e0e      	ldr	r6, [pc, #56]	@ (80037c8 <prvCheckForValidListAndQueue+0x50>)
 8003790:	0030      	movs	r0, r6
 8003792:	f7ff f90b 	bl	80029ac <vListInitialise>
 8003796:	4b0d      	ldr	r3, [pc, #52]	@ (80037cc <prvCheckForValidListAndQueue+0x54>)
 8003798:	2110      	movs	r1, #16
 800379a:	601f      	str	r7, [r3, #0]
 800379c:	4b0c      	ldr	r3, [pc, #48]	@ (80037d0 <prvCheckForValidListAndQueue+0x58>)
 800379e:	200a      	movs	r0, #10
 80037a0:	601e      	str	r6, [r3, #0]
 80037a2:	4a0c      	ldr	r2, [pc, #48]	@ (80037d4 <prvCheckForValidListAndQueue+0x5c>)
 80037a4:	4b0c      	ldr	r3, [pc, #48]	@ (80037d8 <prvCheckForValidListAndQueue+0x60>)
 80037a6:	9500      	str	r5, [sp, #0]
 80037a8:	f7ff f9fd 	bl	8002ba6 <xQueueGenericCreateStatic>
 80037ac:	6020      	str	r0, [r4, #0]
 80037ae:	2800      	cmp	r0, #0
 80037b0:	d002      	beq.n	80037b8 <prvCheckForValidListAndQueue+0x40>
 80037b2:	490a      	ldr	r1, [pc, #40]	@ (80037dc <prvCheckForValidListAndQueue+0x64>)
 80037b4:	f7ff fb84 	bl	8002ec0 <vQueueAddToRegistry>
 80037b8:	f000 f9f8 	bl	8003bac <vPortExitCritical>
 80037bc:	bdf7      	pop	{r0, r1, r2, r4, r5, r6, r7, pc}
 80037be:	46c0      	nop			@ (mov r8, r8)
 80037c0:	200010ec 	.word	0x200010ec
 80037c4:	2000110c 	.word	0x2000110c
 80037c8:	200010f8 	.word	0x200010f8
 80037cc:	200010f4 	.word	0x200010f4
 80037d0:	200010f0 	.word	0x200010f0
 80037d4:	20001044 	.word	0x20001044
 80037d8:	20000ff4 	.word	0x20000ff4
 80037dc:	08003f7d 	.word	0x08003f7d

080037e0 <xTimerCreateTimerTask>:
 80037e0:	b510      	push	{r4, lr}
 80037e2:	b088      	sub	sp, #32
 80037e4:	f7ff ffc8 	bl	8003778 <prvCheckForValidListAndQueue>
 80037e8:	4b10      	ldr	r3, [pc, #64]	@ (800382c <xTimerCreateTimerTask+0x4c>)
 80037ea:	681b      	ldr	r3, [r3, #0]
 80037ec:	2b00      	cmp	r3, #0
 80037ee:	d017      	beq.n	8003820 <xTimerCreateTimerTask+0x40>
 80037f0:	2400      	movs	r4, #0
 80037f2:	aa07      	add	r2, sp, #28
 80037f4:	a906      	add	r1, sp, #24
 80037f6:	a805      	add	r0, sp, #20
 80037f8:	9405      	str	r4, [sp, #20]
 80037fa:	9406      	str	r4, [sp, #24]
 80037fc:	f7ff f8ca 	bl	8002994 <vApplicationGetTimerTaskMemory>
 8003800:	9b05      	ldr	r3, [sp, #20]
 8003802:	490b      	ldr	r1, [pc, #44]	@ (8003830 <xTimerCreateTimerTask+0x50>)
 8003804:	9302      	str	r3, [sp, #8]
 8003806:	9b06      	ldr	r3, [sp, #24]
 8003808:	480a      	ldr	r0, [pc, #40]	@ (8003834 <xTimerCreateTimerTask+0x54>)
 800380a:	9301      	str	r3, [sp, #4]
 800380c:	2302      	movs	r3, #2
 800380e:	9a07      	ldr	r2, [sp, #28]
 8003810:	9300      	str	r3, [sp, #0]
 8003812:	0023      	movs	r3, r4
 8003814:	f7ff fcd1 	bl	80031ba <xTaskCreateStatic>
 8003818:	4b07      	ldr	r3, [pc, #28]	@ (8003838 <xTimerCreateTimerTask+0x58>)
 800381a:	6018      	str	r0, [r3, #0]
 800381c:	42a0      	cmp	r0, r4
 800381e:	d101      	bne.n	8003824 <xTimerCreateTimerTask+0x44>
 8003820:	b672      	cpsid	i
 8003822:	e7fe      	b.n	8003822 <xTimerCreateTimerTask+0x42>
 8003824:	2001      	movs	r0, #1
 8003826:	b008      	add	sp, #32
 8003828:	bd10      	pop	{r4, pc}
 800382a:	46c0      	nop			@ (mov r8, r8)
 800382c:	200010ec 	.word	0x200010ec
 8003830:	08003f82 	.word	0x08003f82
 8003834:	0800391d 	.word	0x0800391d
 8003838:	200010e8 	.word	0x200010e8

0800383c <xTimerGenericCommand>:
 800383c:	b5f0      	push	{r4, r5, r6, r7, lr}
 800383e:	0017      	movs	r7, r2
 8003840:	0004      	movs	r4, r0
 8003842:	001a      	movs	r2, r3
 8003844:	b085      	sub	sp, #20
 8003846:	2800      	cmp	r0, #0
 8003848:	d101      	bne.n	800384e <xTimerGenericCommand+0x12>
 800384a:	b672      	cpsid	i
 800384c:	e7fe      	b.n	800384c <xTimerGenericCommand+0x10>
 800384e:	4d0d      	ldr	r5, [pc, #52]	@ (8003884 <xTimerGenericCommand+0x48>)
 8003850:	682e      	ldr	r6, [r5, #0]
 8003852:	1e30      	subs	r0, r6, #0
 8003854:	d00f      	beq.n	8003876 <xTimerGenericCommand+0x3a>
 8003856:	9100      	str	r1, [sp, #0]
 8003858:	9701      	str	r7, [sp, #4]
 800385a:	9402      	str	r4, [sp, #8]
 800385c:	2905      	cmp	r1, #5
 800385e:	dc0c      	bgt.n	800387a <xTimerGenericCommand+0x3e>
 8003860:	f7ff ff26 	bl	80036b0 <xTaskGetSchedulerState>
 8003864:	2300      	movs	r3, #0
 8003866:	9a0a      	ldr	r2, [sp, #40]	@ 0x28
 8003868:	2802      	cmp	r0, #2
 800386a:	d000      	beq.n	800386e <xTimerGenericCommand+0x32>
 800386c:	001a      	movs	r2, r3
 800386e:	4669      	mov	r1, sp
 8003870:	6828      	ldr	r0, [r5, #0]
 8003872:	f7ff f9c9 	bl	8002c08 <xQueueGenericSend>
 8003876:	b005      	add	sp, #20
 8003878:	bdf0      	pop	{r4, r5, r6, r7, pc}
 800387a:	2300      	movs	r3, #0
 800387c:	4669      	mov	r1, sp
 800387e:	f7ff fa52 	bl	8002d26 <xQueueGenericSendFromISR>
 8003882:	e7f8      	b.n	8003876 <xTimerGenericCommand+0x3a>
 8003884:	200010ec 	.word	0x200010ec

08003888 <prvSampleTimeNow>:
 8003888:	b5f0      	push	{r4, r5, r6, r7, lr}
 800388a:	b087      	sub	sp, #28
 800388c:	9005      	str	r0, [sp, #20]
 800388e:	f7ff fd25 	bl	80032dc <xTaskGetTickCount>
 8003892:	4f1f      	ldr	r7, [pc, #124]	@ (8003910 <prvSampleTimeNow+0x88>)
 8003894:	0005      	movs	r5, r0
 8003896:	683b      	ldr	r3, [r7, #0]
 8003898:	4283      	cmp	r3, r0
 800389a:	d823      	bhi.n	80038e4 <prvSampleTimeNow+0x5c>
 800389c:	2300      	movs	r3, #0
 800389e:	0028      	movs	r0, r5
 80038a0:	9a05      	ldr	r2, [sp, #20]
 80038a2:	603d      	str	r5, [r7, #0]
 80038a4:	6013      	str	r3, [r2, #0]
 80038a6:	b007      	add	sp, #28
 80038a8:	bdf0      	pop	{r4, r5, r6, r7, pc}
 80038aa:	68db      	ldr	r3, [r3, #12]
 80038ac:	68dc      	ldr	r4, [r3, #12]
 80038ae:	681a      	ldr	r2, [r3, #0]
 80038b0:	1d23      	adds	r3, r4, #4
 80038b2:	0018      	movs	r0, r3
 80038b4:	9203      	str	r2, [sp, #12]
 80038b6:	9304      	str	r3, [sp, #16]
 80038b8:	f7ff f8a8 	bl	8002a0c <uxListRemove>
 80038bc:	6a23      	ldr	r3, [r4, #32]
 80038be:	0020      	movs	r0, r4
 80038c0:	4798      	blx	r3
 80038c2:	0023      	movs	r3, r4
 80038c4:	2204      	movs	r2, #4
 80038c6:	3328      	adds	r3, #40	@ 0x28
 80038c8:	781b      	ldrb	r3, [r3, #0]
 80038ca:	4213      	tst	r3, r2
 80038cc:	d00a      	beq.n	80038e4 <prvSampleTimeNow+0x5c>
 80038ce:	69a3      	ldr	r3, [r4, #24]
 80038d0:	9a03      	ldr	r2, [sp, #12]
 80038d2:	18d3      	adds	r3, r2, r3
 80038d4:	429a      	cmp	r2, r3
 80038d6:	d210      	bcs.n	80038fa <prvSampleTimeNow+0x72>
 80038d8:	9904      	ldr	r1, [sp, #16]
 80038da:	6830      	ldr	r0, [r6, #0]
 80038dc:	6063      	str	r3, [r4, #4]
 80038de:	6124      	str	r4, [r4, #16]
 80038e0:	f7ff f87d 	bl	80029de <vListInsert>
 80038e4:	4e0b      	ldr	r6, [pc, #44]	@ (8003914 <prvSampleTimeNow+0x8c>)
 80038e6:	6833      	ldr	r3, [r6, #0]
 80038e8:	681a      	ldr	r2, [r3, #0]
 80038ea:	2a00      	cmp	r2, #0
 80038ec:	d1dd      	bne.n	80038aa <prvSampleTimeNow+0x22>
 80038ee:	4a0a      	ldr	r2, [pc, #40]	@ (8003918 <prvSampleTimeNow+0x90>)
 80038f0:	6811      	ldr	r1, [r2, #0]
 80038f2:	6013      	str	r3, [r2, #0]
 80038f4:	6031      	str	r1, [r6, #0]
 80038f6:	2301      	movs	r3, #1
 80038f8:	e7d1      	b.n	800389e <prvSampleTimeNow+0x16>
 80038fa:	2100      	movs	r1, #0
 80038fc:	0020      	movs	r0, r4
 80038fe:	000b      	movs	r3, r1
 8003900:	9a03      	ldr	r2, [sp, #12]
 8003902:	9100      	str	r1, [sp, #0]
 8003904:	f7ff ff9a 	bl	800383c <xTimerGenericCommand>
 8003908:	2800      	cmp	r0, #0
 800390a:	d1eb      	bne.n	80038e4 <prvSampleTimeNow+0x5c>
 800390c:	b672      	cpsid	i
 800390e:	e7fe      	b.n	800390e <prvSampleTimeNow+0x86>
 8003910:	200010e4 	.word	0x200010e4
 8003914:	200010f4 	.word	0x200010f4
 8003918:	200010f0 	.word	0x200010f0

0800391c <prvTimerTask>:
 800391c:	b5f0      	push	{r4, r5, r6, r7, lr}
 800391e:	2701      	movs	r7, #1
 8003920:	b08b      	sub	sp, #44	@ 0x2c
 8003922:	4e5a      	ldr	r6, [pc, #360]	@ (8003a8c <prvTimerTask+0x170>)
 8003924:	003d      	movs	r5, r7
 8003926:	6833      	ldr	r3, [r6, #0]
 8003928:	681c      	ldr	r4, [r3, #0]
 800392a:	2c00      	cmp	r4, #0
 800392c:	d002      	beq.n	8003934 <prvTimerTask+0x18>
 800392e:	2500      	movs	r5, #0
 8003930:	68db      	ldr	r3, [r3, #12]
 8003932:	681c      	ldr	r4, [r3, #0]
 8003934:	f7ff fcca 	bl	80032cc <vTaskSuspendAll>
 8003938:	a806      	add	r0, sp, #24
 800393a:	f7ff ffa5 	bl	8003888 <prvSampleTimeNow>
 800393e:	9b06      	ldr	r3, [sp, #24]
 8003940:	9003      	str	r0, [sp, #12]
 8003942:	2b00      	cmp	r3, #0
 8003944:	d15e      	bne.n	8003a04 <prvTimerTask+0xe8>
 8003946:	2d00      	cmp	r5, #0
 8003948:	d149      	bne.n	80039de <prvTimerTask+0xc2>
 800394a:	42a0      	cmp	r0, r4
 800394c:	d34c      	bcc.n	80039e8 <prvTimerTask+0xcc>
 800394e:	f7ff fd51 	bl	80033f4 <xTaskResumeAll>
 8003952:	6833      	ldr	r3, [r6, #0]
 8003954:	68db      	ldr	r3, [r3, #12]
 8003956:	68de      	ldr	r6, [r3, #12]
 8003958:	1d30      	adds	r0, r6, #4
 800395a:	f7ff f857 	bl	8002a0c <uxListRemove>
 800395e:	0032      	movs	r2, r6
 8003960:	2104      	movs	r1, #4
 8003962:	3228      	adds	r2, #40	@ 0x28
 8003964:	7813      	ldrb	r3, [r2, #0]
 8003966:	420b      	tst	r3, r1
 8003968:	d013      	beq.n	8003992 <prvTimerTask+0x76>
 800396a:	69b1      	ldr	r1, [r6, #24]
 800396c:	0023      	movs	r3, r4
 800396e:	0030      	movs	r0, r6
 8003970:	9a03      	ldr	r2, [sp, #12]
 8003972:	1861      	adds	r1, r4, r1
 8003974:	f7ff fee2 	bl	800373c <prvInsertTimerInActiveList>
 8003978:	2800      	cmp	r0, #0
 800397a:	d00c      	beq.n	8003996 <prvTimerTask+0x7a>
 800397c:	002b      	movs	r3, r5
 800397e:	0022      	movs	r2, r4
 8003980:	0029      	movs	r1, r5
 8003982:	0030      	movs	r0, r6
 8003984:	9500      	str	r5, [sp, #0]
 8003986:	f7ff ff59 	bl	800383c <xTimerGenericCommand>
 800398a:	2800      	cmp	r0, #0
 800398c:	d103      	bne.n	8003996 <prvTimerTask+0x7a>
 800398e:	b672      	cpsid	i
 8003990:	e7fe      	b.n	8003990 <prvTimerTask+0x74>
 8003992:	43bb      	bics	r3, r7
 8003994:	7013      	strb	r3, [r2, #0]
 8003996:	0030      	movs	r0, r6
 8003998:	6a33      	ldr	r3, [r6, #32]
 800399a:	4798      	blx	r3
 800399c:	4b3c      	ldr	r3, [pc, #240]	@ (8003a90 <prvTimerTask+0x174>)
 800399e:	2200      	movs	r2, #0
 80039a0:	6818      	ldr	r0, [r3, #0]
 80039a2:	a906      	add	r1, sp, #24
 80039a4:	f7ff fa07 	bl	8002db6 <xQueueReceive>
 80039a8:	2800      	cmp	r0, #0
 80039aa:	d0ba      	beq.n	8003922 <prvTimerTask+0x6>
 80039ac:	9b06      	ldr	r3, [sp, #24]
 80039ae:	9808      	ldr	r0, [sp, #32]
 80039b0:	2b00      	cmp	r3, #0
 80039b2:	db2a      	blt.n	8003a0a <prvTimerTask+0xee>
 80039b4:	9c08      	ldr	r4, [sp, #32]
 80039b6:	6963      	ldr	r3, [r4, #20]
 80039b8:	2b00      	cmp	r3, #0
 80039ba:	d12d      	bne.n	8003a18 <prvTimerTask+0xfc>
 80039bc:	a805      	add	r0, sp, #20
 80039be:	f7ff ff63 	bl	8003888 <prvSampleTimeNow>
 80039c2:	0002      	movs	r2, r0
 80039c4:	9806      	ldr	r0, [sp, #24]
 80039c6:	2809      	cmp	r0, #9
 80039c8:	d8e8      	bhi.n	800399c <prvTimerTask+0x80>
 80039ca:	0025      	movs	r5, r4
 80039cc:	3528      	adds	r5, #40	@ 0x28
 80039ce:	782b      	ldrb	r3, [r5, #0]
 80039d0:	f7fc fb9a 	bl	8000108 <__gnu_thumb1_case_uqi>
 80039d4:	58262626 	.word	0x58262626
 80039d8:	26265244 	.word	0x26265244
 80039dc:	4458      	.short	0x4458
 80039de:	4b2d      	ldr	r3, [pc, #180]	@ (8003a94 <prvTimerTask+0x178>)
 80039e0:	681b      	ldr	r3, [r3, #0]
 80039e2:	681d      	ldr	r5, [r3, #0]
 80039e4:	426b      	negs	r3, r5
 80039e6:	415d      	adcs	r5, r3
 80039e8:	9b03      	ldr	r3, [sp, #12]
 80039ea:	002a      	movs	r2, r5
 80039ec:	1ae1      	subs	r1, r4, r3
 80039ee:	4b28      	ldr	r3, [pc, #160]	@ (8003a90 <prvTimerTask+0x174>)
 80039f0:	6818      	ldr	r0, [r3, #0]
 80039f2:	f7ff fa77 	bl	8002ee4 <vQueueWaitForMessageRestricted>
 80039f6:	f7ff fcfd 	bl	80033f4 <xTaskResumeAll>
 80039fa:	2800      	cmp	r0, #0
 80039fc:	d1ce      	bne.n	800399c <prvTimerTask+0x80>
 80039fe:	f000 f8bd 	bl	8003b7c <vPortYield>
 8003a02:	e7cb      	b.n	800399c <prvTimerTask+0x80>
 8003a04:	f7ff fcf6 	bl	80033f4 <xTaskResumeAll>
 8003a08:	e7c8      	b.n	800399c <prvTimerTask+0x80>
 8003a0a:	9b07      	ldr	r3, [sp, #28]
 8003a0c:	9909      	ldr	r1, [sp, #36]	@ 0x24
 8003a0e:	4798      	blx	r3
 8003a10:	9b06      	ldr	r3, [sp, #24]
 8003a12:	2b00      	cmp	r3, #0
 8003a14:	dbc2      	blt.n	800399c <prvTimerTask+0x80>
 8003a16:	e7cd      	b.n	80039b4 <prvTimerTask+0x98>
 8003a18:	1d20      	adds	r0, r4, #4
 8003a1a:	f7fe fff7 	bl	8002a0c <uxListRemove>
 8003a1e:	e7cd      	b.n	80039bc <prvTimerTask+0xa0>
 8003a20:	433b      	orrs	r3, r7
 8003a22:	702b      	strb	r3, [r5, #0]
 8003a24:	9b07      	ldr	r3, [sp, #28]
 8003a26:	69a1      	ldr	r1, [r4, #24]
 8003a28:	0020      	movs	r0, r4
 8003a2a:	1859      	adds	r1, r3, r1
 8003a2c:	f7ff fe86 	bl	800373c <prvInsertTimerInActiveList>
 8003a30:	2800      	cmp	r0, #0
 8003a32:	d0b3      	beq.n	800399c <prvTimerTask+0x80>
 8003a34:	6a23      	ldr	r3, [r4, #32]
 8003a36:	0020      	movs	r0, r4
 8003a38:	4798      	blx	r3
 8003a3a:	2204      	movs	r2, #4
 8003a3c:	782b      	ldrb	r3, [r5, #0]
 8003a3e:	4213      	tst	r3, r2
 8003a40:	d0ac      	beq.n	800399c <prvTimerTask+0x80>
 8003a42:	2100      	movs	r1, #0
 8003a44:	69a3      	ldr	r3, [r4, #24]
 8003a46:	9a07      	ldr	r2, [sp, #28]
 8003a48:	0020      	movs	r0, r4
 8003a4a:	18d2      	adds	r2, r2, r3
 8003a4c:	9100      	str	r1, [sp, #0]
 8003a4e:	000b      	movs	r3, r1
 8003a50:	f7ff fef4 	bl	800383c <xTimerGenericCommand>
 8003a54:	2800      	cmp	r0, #0
 8003a56:	d1a1      	bne.n	800399c <prvTimerTask+0x80>
 8003a58:	b672      	cpsid	i
 8003a5a:	e7fe      	b.n	8003a5a <prvTimerTask+0x13e>
 8003a5c:	433b      	orrs	r3, r7
 8003a5e:	702b      	strb	r3, [r5, #0]
 8003a60:	9907      	ldr	r1, [sp, #28]
 8003a62:	61a1      	str	r1, [r4, #24]
 8003a64:	2900      	cmp	r1, #0
 8003a66:	d101      	bne.n	8003a6c <prvTimerTask+0x150>
 8003a68:	b672      	cpsid	i
 8003a6a:	e7fe      	b.n	8003a6a <prvTimerTask+0x14e>
 8003a6c:	0013      	movs	r3, r2
 8003a6e:	0020      	movs	r0, r4
 8003a70:	1851      	adds	r1, r2, r1
 8003a72:	f7ff fe63 	bl	800373c <prvInsertTimerInActiveList>
 8003a76:	e791      	b.n	800399c <prvTimerTask+0x80>
 8003a78:	079a      	lsls	r2, r3, #30
 8003a7a:	d403      	bmi.n	8003a84 <prvTimerTask+0x168>
 8003a7c:	0020      	movs	r0, r4
 8003a7e:	f000 f989 	bl	8003d94 <vPortFree>
 8003a82:	e78b      	b.n	800399c <prvTimerTask+0x80>
 8003a84:	43bb      	bics	r3, r7
 8003a86:	702b      	strb	r3, [r5, #0]
 8003a88:	e788      	b.n	800399c <prvTimerTask+0x80>
 8003a8a:	46c0      	nop			@ (mov r8, r8)
 8003a8c:	200010f4 	.word	0x200010f4
 8003a90:	200010ec 	.word	0x200010ec
 8003a94:	200010f0 	.word	0x200010f0

08003a98 <prvTaskExitError>:
 8003a98:	2300      	movs	r3, #0
 8003a9a:	b082      	sub	sp, #8
 8003a9c:	9301      	str	r3, [sp, #4]
 8003a9e:	4b06      	ldr	r3, [pc, #24]	@ (8003ab8 <prvTaskExitError+0x20>)
 8003aa0:	681b      	ldr	r3, [r3, #0]
 8003aa2:	3301      	adds	r3, #1
 8003aa4:	d001      	beq.n	8003aaa <prvTaskExitError+0x12>
 8003aa6:	b672      	cpsid	i
 8003aa8:	e7fe      	b.n	8003aa8 <prvTaskExitError+0x10>
 8003aaa:	b672      	cpsid	i
 8003aac:	9b01      	ldr	r3, [sp, #4]
 8003aae:	2b00      	cmp	r3, #0
 8003ab0:	d0fc      	beq.n	8003aac <prvTaskExitError+0x14>
 8003ab2:	b002      	add	sp, #8
 8003ab4:	4770      	bx	lr
 8003ab6:	46c0      	nop			@ (mov r8, r8)
 8003ab8:	2000000c 	.word	0x2000000c
 8003abc:	00000000 	.word	0x00000000

08003ac0 <vPortStartFirstTask>:
 8003ac0:	4a0b      	ldr	r2, [pc, #44]	@ (8003af0 <pxCurrentTCBConst2>)
 8003ac2:	6813      	ldr	r3, [r2, #0]
 8003ac4:	6818      	ldr	r0, [r3, #0]
 8003ac6:	3020      	adds	r0, #32
 8003ac8:	f380 8809 	msr	PSP, r0
 8003acc:	2002      	movs	r0, #2
 8003ace:	f380 8814 	msr	CONTROL, r0
 8003ad2:	f3bf 8f6f 	isb	sy
 8003ad6:	bc3f      	pop	{r0, r1, r2, r3, r4, r5}
 8003ad8:	46ae      	mov	lr, r5
 8003ada:	bc08      	pop	{r3}
 8003adc:	bc04      	pop	{r2}
 8003ade:	b662      	cpsie	i
 8003ae0:	4718      	bx	r3
 8003ae2:	46c0      	nop			@ (mov r8, r8)
 8003ae4:	46c0      	nop			@ (mov r8, r8)
 8003ae6:	46c0      	nop			@ (mov r8, r8)
 8003ae8:	46c0      	nop			@ (mov r8, r8)
 8003aea:	46c0      	nop			@ (mov r8, r8)
 8003aec:	46c0      	nop			@ (mov r8, r8)
 8003aee:	46c0      	nop			@ (mov r8, r8)

08003af0 <pxCurrentTCBConst2>:
 8003af0:	20000ff0 	.word	0x20000ff0

08003af4 <pxPortInitialiseStack>:
 8003af4:	b510      	push	{r4, lr}
 8003af6:	2480      	movs	r4, #128	@ 0x80
 8003af8:	1f03      	subs	r3, r0, #4
 8003afa:	0464      	lsls	r4, r4, #17
 8003afc:	601c      	str	r4, [r3, #0]
 8003afe:	3b04      	subs	r3, #4
 8003b00:	6019      	str	r1, [r3, #0]
 8003b02:	4903      	ldr	r1, [pc, #12]	@ (8003b10 <pxPortInitialiseStack+0x1c>)
 8003b04:	3b04      	subs	r3, #4
 8003b06:	6019      	str	r1, [r3, #0]
 8003b08:	3b14      	subs	r3, #20
 8003b0a:	3840      	subs	r0, #64	@ 0x40
 8003b0c:	601a      	str	r2, [r3, #0]
 8003b0e:	bd10      	pop	{r4, pc}
 8003b10:	08003a99 	.word	0x08003a99

08003b14 <SVC_Handler>:
 8003b14:	4770      	bx	lr
	...

08003b18 <xPortStartScheduler>:
 8003b18:	22ff      	movs	r2, #255	@ 0xff
 8003b1a:	4b12      	ldr	r3, [pc, #72]	@ (8003b64 <xPortStartScheduler+0x4c>)
 8003b1c:	0412      	lsls	r2, r2, #16
 8003b1e:	6819      	ldr	r1, [r3, #0]
 8003b20:	b570      	push	{r4, r5, r6, lr}
 8003b22:	430a      	orrs	r2, r1
 8003b24:	601a      	str	r2, [r3, #0]
 8003b26:	22ff      	movs	r2, #255	@ 0xff
 8003b28:	6819      	ldr	r1, [r3, #0]
 8003b2a:	2400      	movs	r4, #0
 8003b2c:	0612      	lsls	r2, r2, #24
 8003b2e:	430a      	orrs	r2, r1
 8003b30:	21fa      	movs	r1, #250	@ 0xfa
 8003b32:	601a      	str	r2, [r3, #0]
 8003b34:	4d0c      	ldr	r5, [pc, #48]	@ (8003b68 <xPortStartScheduler+0x50>)
 8003b36:	4b0d      	ldr	r3, [pc, #52]	@ (8003b6c <xPortStartScheduler+0x54>)
 8003b38:	602c      	str	r4, [r5, #0]
 8003b3a:	601c      	str	r4, [r3, #0]
 8003b3c:	4b0c      	ldr	r3, [pc, #48]	@ (8003b70 <xPortStartScheduler+0x58>)
 8003b3e:	0089      	lsls	r1, r1, #2
 8003b40:	6818      	ldr	r0, [r3, #0]
 8003b42:	f7fc faeb 	bl	800011c <__udivsi3>
 8003b46:	4b0b      	ldr	r3, [pc, #44]	@ (8003b74 <xPortStartScheduler+0x5c>)
 8003b48:	3801      	subs	r0, #1
 8003b4a:	6018      	str	r0, [r3, #0]
 8003b4c:	2307      	movs	r3, #7
 8003b4e:	602b      	str	r3, [r5, #0]
 8003b50:	4b09      	ldr	r3, [pc, #36]	@ (8003b78 <xPortStartScheduler+0x60>)
 8003b52:	601c      	str	r4, [r3, #0]
 8003b54:	f7ff ffb4 	bl	8003ac0 <vPortStartFirstTask>
 8003b58:	f7ff fcce 	bl	80034f8 <vTaskSwitchContext>
 8003b5c:	f7ff ff9c 	bl	8003a98 <prvTaskExitError>
 8003b60:	0020      	movs	r0, r4
 8003b62:	bd70      	pop	{r4, r5, r6, pc}
 8003b64:	e000ed20 	.word	0xe000ed20
 8003b68:	e000e010 	.word	0xe000e010
 8003b6c:	e000e018 	.word	0xe000e018
 8003b70:	20000000 	.word	0x20000000
 8003b74:	e000e014 	.word	0xe000e014
 8003b78:	2000000c 	.word	0x2000000c

08003b7c <vPortYield>:
 8003b7c:	2280      	movs	r2, #128	@ 0x80
 8003b7e:	4b04      	ldr	r3, [pc, #16]	@ (8003b90 <vPortYield+0x14>)
 8003b80:	0552      	lsls	r2, r2, #21
 8003b82:	601a      	str	r2, [r3, #0]
 8003b84:	f3bf 8f4f 	dsb	sy
 8003b88:	f3bf 8f6f 	isb	sy
 8003b8c:	4770      	bx	lr
 8003b8e:	46c0      	nop			@ (mov r8, r8)
 8003b90:	e000ed04 	.word	0xe000ed04

08003b94 <vPortEnterCritical>:
 8003b94:	b672      	cpsid	i
 8003b96:	4a04      	ldr	r2, [pc, #16]	@ (8003ba8 <vPortEnterCritical+0x14>)
 8003b98:	6813      	ldr	r3, [r2, #0]
 8003b9a:	3301      	adds	r3, #1
 8003b9c:	6013      	str	r3, [r2, #0]
 8003b9e:	f3bf 8f4f 	dsb	sy
 8003ba2:	f3bf 8f6f 	isb	sy
 8003ba6:	4770      	bx	lr
 8003ba8:	2000000c 	.word	0x2000000c

08003bac <vPortExitCritical>:
 8003bac:	4a05      	ldr	r2, [pc, #20]	@ (8003bc4 <vPortExitCritical+0x18>)
 8003bae:	6813      	ldr	r3, [r2, #0]
 8003bb0:	2b00      	cmp	r3, #0
 8003bb2:	d101      	bne.n	8003bb8 <vPortExitCritical+0xc>
 8003bb4:	b672      	cpsid	i
 8003bb6:	e7fe      	b.n	8003bb6 <vPortExitCritical+0xa>
 8003bb8:	3b01      	subs	r3, #1
 8003bba:	6013      	str	r3, [r2, #0]
 8003bbc:	2b00      	cmp	r3, #0
 8003bbe:	d100      	bne.n	8003bc2 <vPortExitCritical+0x16>
 8003bc0:	b662      	cpsie	i
 8003bc2:	4770      	bx	lr
 8003bc4:	2000000c 	.word	0x2000000c

08003bc8 <ulSetInterruptMaskFromISR>:
 8003bc8:	f3ef 8010 	mrs	r0, PRIMASK
 8003bcc:	b672      	cpsid	i
 8003bce:	4770      	bx	lr

08003bd0 <vClearInterruptMaskFromISR>:
 8003bd0:	f380 8810 	msr	PRIMASK, r0
 8003bd4:	4770      	bx	lr
	...

08003be0 <PendSV_Handler>:
 8003be0:	f3ef 8009 	mrs	r0, PSP
 8003be4:	4b0e      	ldr	r3, [pc, #56]	@ (8003c20 <pxCurrentTCBConst>)
 8003be6:	681a      	ldr	r2, [r3, #0]
 8003be8:	3820      	subs	r0, #32
 8003bea:	6010      	str	r0, [r2, #0]
 8003bec:	c0f0      	stmia	r0!, {r4, r5, r6, r7}
 8003bee:	4644      	mov	r4, r8
 8003bf0:	464d      	mov	r5, r9
 8003bf2:	4656      	mov	r6, sl
 8003bf4:	465f      	mov	r7, fp
 8003bf6:	c0f0      	stmia	r0!, {r4, r5, r6, r7}
 8003bf8:	b508      	push	{r3, lr}
 8003bfa:	b672      	cpsid	i
 8003bfc:	f7ff fc7c 	bl	80034f8 <vTaskSwitchContext>
 8003c00:	b662      	cpsie	i
 8003c02:	bc0c      	pop	{r2, r3}
 8003c04:	6811      	ldr	r1, [r2, #0]
 8003c06:	6808      	ldr	r0, [r1, #0]
 8003c08:	3010      	adds	r0, #16
 8003c0a:	c8f0      	ldmia	r0!, {r4, r5, r6, r7}
 8003c0c:	46a0      	mov	r8, r4
 8003c0e:	46a9      	mov	r9, r5
 8003c10:	46b2      	mov	sl, r6
 8003c12:	46bb      	mov	fp, r7
 8003c14:	f380 8809 	msr	PSP, r0
 8003c18:	3820      	subs	r0, #32
 8003c1a:	c8f0      	ldmia	r0!, {r4, r5, r6, r7}
 8003c1c:	4718      	bx	r3
 8003c1e:	46c0      	nop			@ (mov r8, r8)

08003c20 <pxCurrentTCBConst>:
 8003c20:	20000ff0 	.word	0x20000ff0

08003c24 <xPortSysTickHandler>:
 8003c24:	b510      	push	{r4, lr}
 8003c26:	f7ff ffcf 	bl	8003bc8 <ulSetInterruptMaskFromISR>
 8003c2a:	0004      	movs	r4, r0
 8003c2c:	f7ff fb5c 	bl	80032e8 <xTaskIncrementTick>
 8003c30:	2800      	cmp	r0, #0
 8003c32:	d003      	beq.n	8003c3c <xPortSysTickHandler+0x18>
 8003c34:	2280      	movs	r2, #128	@ 0x80
 8003c36:	4b03      	ldr	r3, [pc, #12]	@ (8003c44 <xPortSysTickHandler+0x20>)
 8003c38:	0552      	lsls	r2, r2, #21
 8003c3a:	601a      	str	r2, [r3, #0]
 8003c3c:	0020      	movs	r0, r4
 8003c3e:	f7ff ffc7 	bl	8003bd0 <vClearInterruptMaskFromISR>
 8003c42:	bd10      	pop	{r4, pc}
 8003c44:	e000ed04 	.word	0xe000ed04

08003c48 <prvInsertBlockIntoFreeList>:
 8003c48:	b530      	push	{r4, r5, lr}
 8003c4a:	4b0f      	ldr	r3, [pc, #60]	@ (8003c88 <prvInsertBlockIntoFreeList+0x40>)
 8003c4c:	001a      	movs	r2, r3
 8003c4e:	681b      	ldr	r3, [r3, #0]
 8003c50:	4283      	cmp	r3, r0
 8003c52:	d3fb      	bcc.n	8003c4c <prvInsertBlockIntoFreeList+0x4>
 8003c54:	6854      	ldr	r4, [r2, #4]
 8003c56:	1911      	adds	r1, r2, r4
 8003c58:	4288      	cmp	r0, r1
 8003c5a:	d103      	bne.n	8003c64 <prvInsertBlockIntoFreeList+0x1c>
 8003c5c:	6841      	ldr	r1, [r0, #4]
 8003c5e:	0010      	movs	r0, r2
 8003c60:	1909      	adds	r1, r1, r4
 8003c62:	6051      	str	r1, [r2, #4]
 8003c64:	6844      	ldr	r4, [r0, #4]
 8003c66:	0019      	movs	r1, r3
 8003c68:	1905      	adds	r5, r0, r4
 8003c6a:	42ab      	cmp	r3, r5
 8003c6c:	d107      	bne.n	8003c7e <prvInsertBlockIntoFreeList+0x36>
 8003c6e:	4907      	ldr	r1, [pc, #28]	@ (8003c8c <prvInsertBlockIntoFreeList+0x44>)
 8003c70:	6809      	ldr	r1, [r1, #0]
 8003c72:	428b      	cmp	r3, r1
 8003c74:	d003      	beq.n	8003c7e <prvInsertBlockIntoFreeList+0x36>
 8003c76:	6859      	ldr	r1, [r3, #4]
 8003c78:	1909      	adds	r1, r1, r4
 8003c7a:	6041      	str	r1, [r0, #4]
 8003c7c:	6819      	ldr	r1, [r3, #0]
 8003c7e:	6001      	str	r1, [r0, #0]
 8003c80:	4290      	cmp	r0, r2
 8003c82:	d000      	beq.n	8003c86 <prvInsertBlockIntoFreeList+0x3e>
 8003c84:	6010      	str	r0, [r2, #0]
 8003c86:	bd30      	pop	{r4, r5, pc}
 8003c88:	20001130 	.word	0x20001130
 8003c8c:	2000112c 	.word	0x2000112c

08003c90 <pvPortMalloc>:
 8003c90:	b5f7      	push	{r0, r1, r2, r4, r5, r6, r7, lr}
 8003c92:	0004      	movs	r4, r0
 8003c94:	f7ff fb1a 	bl	80032cc <vTaskSuspendAll>
 8003c98:	4a38      	ldr	r2, [pc, #224]	@ (8003d7c <pvPortMalloc+0xec>)
 8003c9a:	4839      	ldr	r0, [pc, #228]	@ (8003d80 <pvPortMalloc+0xf0>)
 8003c9c:	6813      	ldr	r3, [r2, #0]
 8003c9e:	2b00      	cmp	r3, #0
 8003ca0:	d11e      	bne.n	8003ce0 <pvPortMalloc+0x50>
 8003ca2:	4938      	ldr	r1, [pc, #224]	@ (8003d84 <pvPortMalloc+0xf4>)
 8003ca4:	3307      	adds	r3, #7
 8003ca6:	4219      	tst	r1, r3
 8003ca8:	d046      	beq.n	8003d38 <pvPortMalloc+0xa8>
 8003caa:	18cd      	adds	r5, r1, r3
 8003cac:	439d      	bics	r5, r3
 8003cae:	23c0      	movs	r3, #192	@ 0xc0
 8003cb0:	011b      	lsls	r3, r3, #4
 8003cb2:	18cb      	adds	r3, r1, r3
 8003cb4:	0029      	movs	r1, r5
 8003cb6:	1b5b      	subs	r3, r3, r5
 8003cb8:	2500      	movs	r5, #0
 8003cba:	4e33      	ldr	r6, [pc, #204]	@ (8003d88 <pvPortMalloc+0xf8>)
 8003cbc:	18cb      	adds	r3, r1, r3
 8003cbe:	6075      	str	r5, [r6, #4]
 8003cc0:	6031      	str	r1, [r6, #0]
 8003cc2:	2607      	movs	r6, #7
 8003cc4:	3b08      	subs	r3, #8
 8003cc6:	43b3      	bics	r3, r6
 8003cc8:	601d      	str	r5, [r3, #0]
 8003cca:	605d      	str	r5, [r3, #4]
 8003ccc:	1a5d      	subs	r5, r3, r1
 8003cce:	c128      	stmia	r1!, {r3, r5}
 8003cd0:	6013      	str	r3, [r2, #0]
 8003cd2:	4b2e      	ldr	r3, [pc, #184]	@ (8003d8c <pvPortMalloc+0xfc>)
 8003cd4:	601d      	str	r5, [r3, #0]
 8003cd6:	4b2e      	ldr	r3, [pc, #184]	@ (8003d90 <pvPortMalloc+0x100>)
 8003cd8:	601d      	str	r5, [r3, #0]
 8003cda:	2380      	movs	r3, #128	@ 0x80
 8003cdc:	061b      	lsls	r3, r3, #24
 8003cde:	6003      	str	r3, [r0, #0]
 8003ce0:	6806      	ldr	r6, [r0, #0]
 8003ce2:	4234      	tst	r4, r6
 8003ce4:	d146      	bne.n	8003d74 <pvPortMalloc+0xe4>
 8003ce6:	2c00      	cmp	r4, #0
 8003ce8:	d044      	beq.n	8003d74 <pvPortMalloc+0xe4>
 8003cea:	0023      	movs	r3, r4
 8003cec:	2107      	movs	r1, #7
 8003cee:	3308      	adds	r3, #8
 8003cf0:	420b      	tst	r3, r1
 8003cf2:	d001      	beq.n	8003cf8 <pvPortMalloc+0x68>
 8003cf4:	438b      	bics	r3, r1
 8003cf6:	3308      	adds	r3, #8
 8003cf8:	2b00      	cmp	r3, #0
 8003cfa:	d03b      	beq.n	8003d74 <pvPortMalloc+0xe4>
 8003cfc:	4f24      	ldr	r7, [pc, #144]	@ (8003d90 <pvPortMalloc+0x100>)
 8003cfe:	683d      	ldr	r5, [r7, #0]
 8003d00:	429d      	cmp	r5, r3
 8003d02:	d337      	bcc.n	8003d74 <pvPortMalloc+0xe4>
 8003d04:	4920      	ldr	r1, [pc, #128]	@ (8003d88 <pvPortMalloc+0xf8>)
 8003d06:	680c      	ldr	r4, [r1, #0]
 8003d08:	6860      	ldr	r0, [r4, #4]
 8003d0a:	9000      	str	r0, [sp, #0]
 8003d0c:	4298      	cmp	r0, r3
 8003d0e:	d203      	bcs.n	8003d18 <pvPortMalloc+0x88>
 8003d10:	6820      	ldr	r0, [r4, #0]
 8003d12:	4684      	mov	ip, r0
 8003d14:	2800      	cmp	r0, #0
 8003d16:	d112      	bne.n	8003d3e <pvPortMalloc+0xae>
 8003d18:	6812      	ldr	r2, [r2, #0]
 8003d1a:	42a2      	cmp	r2, r4
 8003d1c:	d02a      	beq.n	8003d74 <pvPortMalloc+0xe4>
 8003d1e:	680a      	ldr	r2, [r1, #0]
 8003d20:	9201      	str	r2, [sp, #4]
 8003d22:	6822      	ldr	r2, [r4, #0]
 8003d24:	600a      	str	r2, [r1, #0]
 8003d26:	9a00      	ldr	r2, [sp, #0]
 8003d28:	1ad2      	subs	r2, r2, r3
 8003d2a:	2a10      	cmp	r2, #16
 8003d2c:	d90e      	bls.n	8003d4c <pvPortMalloc+0xbc>
 8003d2e:	18e0      	adds	r0, r4, r3
 8003d30:	0741      	lsls	r1, r0, #29
 8003d32:	d007      	beq.n	8003d44 <pvPortMalloc+0xb4>
 8003d34:	b672      	cpsid	i
 8003d36:	e7fe      	b.n	8003d36 <pvPortMalloc+0xa6>
 8003d38:	23c0      	movs	r3, #192	@ 0xc0
 8003d3a:	011b      	lsls	r3, r3, #4
 8003d3c:	e7bc      	b.n	8003cb8 <pvPortMalloc+0x28>
 8003d3e:	0021      	movs	r1, r4
 8003d40:	4664      	mov	r4, ip
 8003d42:	e7e1      	b.n	8003d08 <pvPortMalloc+0x78>
 8003d44:	6042      	str	r2, [r0, #4]
 8003d46:	6063      	str	r3, [r4, #4]
 8003d48:	f7ff ff7e 	bl	8003c48 <prvInsertBlockIntoFreeList>
 8003d4c:	4a0f      	ldr	r2, [pc, #60]	@ (8003d8c <pvPortMalloc+0xfc>)
 8003d4e:	6863      	ldr	r3, [r4, #4]
 8003d50:	6811      	ldr	r1, [r2, #0]
 8003d52:	1aed      	subs	r5, r5, r3
 8003d54:	603d      	str	r5, [r7, #0]
 8003d56:	428d      	cmp	r5, r1
 8003d58:	d200      	bcs.n	8003d5c <pvPortMalloc+0xcc>
 8003d5a:	6015      	str	r5, [r2, #0]
 8003d5c:	431e      	orrs	r6, r3
 8003d5e:	2300      	movs	r3, #0
 8003d60:	9d01      	ldr	r5, [sp, #4]
 8003d62:	6066      	str	r6, [r4, #4]
 8003d64:	3508      	adds	r5, #8
 8003d66:	6023      	str	r3, [r4, #0]
 8003d68:	f7ff fb44 	bl	80033f4 <xTaskResumeAll>
 8003d6c:	076b      	lsls	r3, r5, #29
 8003d6e:	d003      	beq.n	8003d78 <pvPortMalloc+0xe8>
 8003d70:	b672      	cpsid	i
 8003d72:	e7fe      	b.n	8003d72 <pvPortMalloc+0xe2>
 8003d74:	2500      	movs	r5, #0
 8003d76:	e7f7      	b.n	8003d68 <pvPortMalloc+0xd8>
 8003d78:	0028      	movs	r0, r5
 8003d7a:	bdfe      	pop	{r1, r2, r3, r4, r5, r6, r7, pc}
 8003d7c:	2000112c 	.word	0x2000112c
 8003d80:	20001120 	.word	0x20001120
 8003d84:	20001138 	.word	0x20001138
 8003d88:	20001130 	.word	0x20001130
 8003d8c:	20001124 	.word	0x20001124
 8003d90:	20001128 	.word	0x20001128

08003d94 <vPortFree>:
 8003d94:	b510      	push	{r4, lr}
 8003d96:	1e04      	subs	r4, r0, #0
 8003d98:	d01a      	beq.n	8003dd0 <vPortFree+0x3c>
 8003d9a:	4a0e      	ldr	r2, [pc, #56]	@ (8003dd4 <vPortFree+0x40>)
 8003d9c:	3c08      	subs	r4, #8
 8003d9e:	6863      	ldr	r3, [r4, #4]
 8003da0:	6812      	ldr	r2, [r2, #0]
 8003da2:	421a      	tst	r2, r3
 8003da4:	d101      	bne.n	8003daa <vPortFree+0x16>
 8003da6:	b672      	cpsid	i
 8003da8:	e7fe      	b.n	8003da8 <vPortFree+0x14>
 8003daa:	6821      	ldr	r1, [r4, #0]
 8003dac:	2900      	cmp	r1, #0
 8003dae:	d001      	beq.n	8003db4 <vPortFree+0x20>
 8003db0:	b672      	cpsid	i
 8003db2:	e7fe      	b.n	8003db2 <vPortFree+0x1e>
 8003db4:	4393      	bics	r3, r2
 8003db6:	6063      	str	r3, [r4, #4]
 8003db8:	f7ff fa88 	bl	80032cc <vTaskSuspendAll>
 8003dbc:	4a06      	ldr	r2, [pc, #24]	@ (8003dd8 <vPortFree+0x44>)
 8003dbe:	6863      	ldr	r3, [r4, #4]
 8003dc0:	6811      	ldr	r1, [r2, #0]
 8003dc2:	0020      	movs	r0, r4
 8003dc4:	185b      	adds	r3, r3, r1
 8003dc6:	6013      	str	r3, [r2, #0]
 8003dc8:	f7ff ff3e 	bl	8003c48 <prvInsertBlockIntoFreeList>
 8003dcc:	f7ff fb12 	bl	80033f4 <xTaskResumeAll>
 8003dd0:	bd10      	pop	{r4, pc}
 8003dd2:	46c0      	nop			@ (mov r8, r8)
 8003dd4:	20001120 	.word	0x20001120
 8003dd8:	20001128 	.word	0x20001128

08003ddc <memset>:
 8003ddc:	0003      	movs	r3, r0
 8003dde:	1882      	adds	r2, r0, r2
 8003de0:	4293      	cmp	r3, r2
 8003de2:	d100      	bne.n	8003de6 <memset+0xa>
 8003de4:	4770      	bx	lr
 8003de6:	7019      	strb	r1, [r3, #0]
 8003de8:	3301      	adds	r3, #1
 8003dea:	e7f9      	b.n	8003de0 <memset+0x4>

08003dec <__libc_init_array>:
 8003dec:	b570      	push	{r4, r5, r6, lr}
 8003dee:	2600      	movs	r6, #0
 8003df0:	4c0c      	ldr	r4, [pc, #48]	@ (8003e24 <__libc_init_array+0x38>)
 8003df2:	4d0d      	ldr	r5, [pc, #52]	@ (8003e28 <__libc_init_array+0x3c>)
 8003df4:	1b64      	subs	r4, r4, r5
 8003df6:	10a4      	asrs	r4, r4, #2
 8003df8:	42a6      	cmp	r6, r4
 8003dfa:	d109      	bne.n	8003e10 <__libc_init_array+0x24>
 8003dfc:	2600      	movs	r6, #0
 8003dfe:	f000 f823 	bl	8003e48 <_init>
 8003e02:	4c0a      	ldr	r4, [pc, #40]	@ (8003e2c <__libc_init_array+0x40>)
 8003e04:	4d0a      	ldr	r5, [pc, #40]	@ (8003e30 <__libc_init_array+0x44>)
 8003e06:	1b64      	subs	r4, r4, r5
 8003e08:	10a4      	asrs	r4, r4, #2
 8003e0a:	42a6      	cmp	r6, r4
 8003e0c:	d105      	bne.n	8003e1a <__libc_init_array+0x2e>
 8003e0e:	bd70      	pop	{r4, r5, r6, pc}
 8003e10:	00b3      	lsls	r3, r6, #2
 8003e12:	58eb      	ldr	r3, [r5, r3]
 8003e14:	4798      	blx	r3
 8003e16:	3601      	adds	r6, #1
 8003e18:	e7ee      	b.n	8003df8 <__libc_init_array+0xc>
 8003e1a:	00b3      	lsls	r3, r6, #2
 8003e1c:	58eb      	ldr	r3, [r5, r3]
 8003e1e:	4798      	blx	r3
 8003e20:	3601      	adds	r6, #1
 8003e22:	e7f2      	b.n	8003e0a <__libc_init_array+0x1e>
 8003e24:	08004000 	.word	0x08004000
 8003e28:	08004000 	.word	0x08004000
 8003e2c:	08004004 	.word	0x08004004
 8003e30:	08004000 	.word	0x08004000

08003e34 <memcpy>:
 8003e34:	2300      	movs	r3, #0
 8003e36:	b510      	push	{r4, lr}
 8003e38:	429a      	cmp	r2, r3
 8003e3a:	d100      	bne.n	8003e3e <memcpy+0xa>
 8003e3c:	bd10      	pop	{r4, pc}
 8003e3e:	5ccc      	ldrb	r4, [r1, r3]
 8003e40:	54c4      	strb	r4, [r0, r3]
 8003e42:	3301      	adds	r3, #1
 8003e44:	e7f8      	b.n	8003e38 <memcpy+0x4>
	...

08003e48 <_init>:
 8003e48:	b5f8      	push	{r3, r4, r5, r6, r7, lr}
 8003e4a:	46c0      	nop			@ (mov r8, r8)
 8003e4c:	bcf8      	pop	{r3, r4, r5, r6, r7}
 8003e4e:	bc08      	pop	{r3}
 8003e50:	469e      	mov	lr, r3
 8003e52:	4770      	bx	lr

08003e54 <_fini>:
 8003e54:	b5f8      	push	{r3, r4, r5, r6, r7, lr}
 8003e56:	46c0      	nop			@ (mov r8, r8)
 8003e58:	bcf8      	pop	{r3, r4, r5, r6, r7}
 8003e5a:	bc08      	pop	{r3}
 8003e5c:	469e      	mov	lr, r3
 8003e5e:	4770      	bx	lr
